
rv64ui-p-srliw:     file format elf64-littleriscv


Disassembly of section .text.init:

0000000080000000 <_start>:
    80000000:	0500006f          	j	80000050 <reset_vector>

0000000080000004 <trap_vector>:
    80000004:	34202f73          	csrr	t5,mcause
    80000008:	00800f93          	li	t6,8
    8000000c:	03ff0863          	beq	t5,t6,8000003c <write_tohost>
    80000010:	00900f93          	li	t6,9
    80000014:	03ff0463          	beq	t5,t6,8000003c <write_tohost>
    80000018:	00b00f93          	li	t6,11
    8000001c:	03ff0063          	beq	t5,t6,8000003c <write_tohost>
    80000020:	00000f13          	li	t5,0
    80000024:	000f0463          	beqz	t5,8000002c <trap_vector+0x28>
    80000028:	000f0067          	jr	t5
    8000002c:	34202f73          	csrr	t5,mcause
    80000030:	000f5463          	bgez	t5,80000038 <handle_exception>
    80000034:	0040006f          	j	80000038 <handle_exception>

0000000080000038 <handle_exception>:
    80000038:	5391e193          	ori	gp,gp,1337

000000008000003c <write_tohost>:
    8000003c:	00001f17          	auipc	t5,0x1
    80000040:	fc3f2223          	sw	gp,-60(t5) # 80001000 <tohost>
    80000044:	00001f17          	auipc	t5,0x1
    80000048:	fc0f2023          	sw	zero,-64(t5) # 80001004 <tohost+0x4>
    8000004c:	ff1ff06f          	j	8000003c <write_tohost>

0000000080000050 <reset_vector>:
    80000050:	00000093          	li	ra,0
    80000054:	00000113          	li	sp,0
    80000058:	00000193          	li	gp,0
    8000005c:	00000213          	li	tp,0
    80000060:	00000293          	li	t0,0
    80000064:	00000313          	li	t1,0
    80000068:	00000393          	li	t2,0
    8000006c:	00000413          	li	s0,0
    80000070:	00000493          	li	s1,0
    80000074:	00000513          	li	a0,0
    80000078:	00000593          	li	a1,0
    8000007c:	00000613          	li	a2,0
    80000080:	00000693          	li	a3,0
    80000084:	00000713          	li	a4,0
    80000088:	00000793          	li	a5,0
    8000008c:	00000813          	li	a6,0
    80000090:	00000893          	li	a7,0
    80000094:	00000913          	li	s2,0
    80000098:	00000993          	li	s3,0
    8000009c:	00000a13          	li	s4,0
    800000a0:	00000a93          	li	s5,0
    800000a4:	00000b13          	li	s6,0
    800000a8:	00000b93          	li	s7,0
    800000ac:	00000c13          	li	s8,0
    800000b0:	00000c93          	li	s9,0
    800000b4:	00000d13          	li	s10,0
    800000b8:	00000d93          	li	s11,0
    800000bc:	00000e13          	li	t3,0
    800000c0:	00000e93          	li	t4,0
    800000c4:	00000f13          	li	t5,0
    800000c8:	00000f93          	li	t6,0
    800000cc:	f1402573          	csrr	a0,mhartid
    800000d0:	00051063          	bnez	a0,800000d0 <reset_vector+0x80>
    800000d4:	00000297          	auipc	t0,0x0
    800000d8:	01028293          	addi	t0,t0,16 # 800000e4 <reset_vector+0x94>
    800000dc:	30529073          	csrw	mtvec,t0
    800000e0:	18005073          	csrwi	satp,0
    800000e4:	00000297          	auipc	t0,0x0
    800000e8:	02428293          	addi	t0,t0,36 # 80000108 <reset_vector+0xb8>
    800000ec:	30529073          	csrw	mtvec,t0
    800000f0:	0010029b          	addiw	t0,zero,1
    800000f4:	03529293          	slli	t0,t0,0x35
    800000f8:	fff28293          	addi	t0,t0,-1
    800000fc:	3b029073          	csrw	pmpaddr0,t0
    80000100:	01f00293          	li	t0,31
    80000104:	3a029073          	csrw	pmpcfg0,t0
    80000108:	30405073          	csrwi	mie,0
    8000010c:	00000297          	auipc	t0,0x0
    80000110:	01428293          	addi	t0,t0,20 # 80000120 <reset_vector+0xd0>
    80000114:	30529073          	csrw	mtvec,t0
    80000118:	30205073          	csrwi	medeleg,0
    8000011c:	30305073          	csrwi	mideleg,0
    80000120:	00000193          	li	gp,0
    80000124:	00000297          	auipc	t0,0x0
    80000128:	ee028293          	addi	t0,t0,-288 # 80000004 <trap_vector>
    8000012c:	30529073          	csrw	mtvec,t0
    80000130:	00100513          	li	a0,1
    80000134:	01f51513          	slli	a0,a0,0x1f
    80000138:	00055c63          	bgez	a0,80000150 <reset_vector+0x100>
    8000013c:	0ff0000f          	fence
    80000140:	00100193          	li	gp,1
    80000144:	05d00893          	li	a7,93
    80000148:	00000513          	li	a0,0
    8000014c:	00000073          	ecall
    80000150:	00000293          	li	t0,0
    80000154:	00028a63          	beqz	t0,80000168 <reset_vector+0x118>
    80000158:	10529073          	csrw	stvec,t0
    8000015c:	0000b2b7          	lui	t0,0xb
    80000160:	1092829b          	addiw	t0,t0,265 # b109 <_start-0x7fff4ef7>
    80000164:	30229073          	csrw	medeleg,t0
    80000168:	30005073          	csrwi	mstatus,0
    8000016c:	00000297          	auipc	t0,0x0
    80000170:	01428293          	addi	t0,t0,20 # 80000180 <test_2>
    80000174:	34129073          	csrw	mepc,t0
    80000178:	f1402573          	csrr	a0,mhartid
    8000017c:	30200073          	mret

0000000080000180 <test_2>:
    80000180:	00200193          	li	gp,2
    80000184:	800000b7          	lui	ra,0x80000
    80000188:	0000d71b          	srliw	a4,ra,0x0
    8000018c:	800003b7          	lui	t2,0x80000
    80000190:	32771063          	bne	a4,t2,800004b0 <fail>

0000000080000194 <test_3>:
    80000194:	00300193          	li	gp,3
    80000198:	800000b7          	lui	ra,0x80000
    8000019c:	0010d71b          	srliw	a4,ra,0x1
    800001a0:	400003b7          	lui	t2,0x40000
    800001a4:	30771663          	bne	a4,t2,800004b0 <fail>

00000000800001a8 <test_4>:
    800001a8:	00400193          	li	gp,4
    800001ac:	800000b7          	lui	ra,0x80000
    800001b0:	0070d71b          	srliw	a4,ra,0x7
    800001b4:	010003b7          	lui	t2,0x1000
    800001b8:	2e771c63          	bne	a4,t2,800004b0 <fail>

00000000800001bc <test_5>:
    800001bc:	00500193          	li	gp,5
    800001c0:	800000b7          	lui	ra,0x80000
    800001c4:	00e0d71b          	srliw	a4,ra,0xe
    800001c8:	000203b7          	lui	t2,0x20
    800001cc:	2e771263          	bne	a4,t2,800004b0 <fail>

00000000800001d0 <test_6>:
    800001d0:	00600193          	li	gp,6
    800001d4:	800000b7          	lui	ra,0x80000
    800001d8:	0010809b          	addiw	ra,ra,1 # ffffffff80000001 <_end+0xfffffffeffffe001>
    800001dc:	01f0d71b          	srliw	a4,ra,0x1f
    800001e0:	00100393          	li	t2,1
    800001e4:	2c771663          	bne	a4,t2,800004b0 <fail>

00000000800001e8 <test_7>:
    800001e8:	00700193          	li	gp,7
    800001ec:	fff00093          	li	ra,-1
    800001f0:	0000d71b          	srliw	a4,ra,0x0
    800001f4:	fff00393          	li	t2,-1
    800001f8:	2a771c63          	bne	a4,t2,800004b0 <fail>

00000000800001fc <test_8>:
    800001fc:	00800193          	li	gp,8
    80000200:	fff00093          	li	ra,-1
    80000204:	0010d71b          	srliw	a4,ra,0x1
    80000208:	800003b7          	lui	t2,0x80000
    8000020c:	fff3839b          	addiw	t2,t2,-1 # 7fffffff <_start-0x1>
    80000210:	2a771063          	bne	a4,t2,800004b0 <fail>

0000000080000214 <test_9>:
    80000214:	00900193          	li	gp,9
    80000218:	fff00093          	li	ra,-1
    8000021c:	0070d71b          	srliw	a4,ra,0x7
    80000220:	020003b7          	lui	t2,0x2000
    80000224:	fff3839b          	addiw	t2,t2,-1 # 1ffffff <_start-0x7e000001>
    80000228:	28771463          	bne	a4,t2,800004b0 <fail>

000000008000022c <test_10>:
    8000022c:	00a00193          	li	gp,10
    80000230:	fff00093          	li	ra,-1
    80000234:	00e0d71b          	srliw	a4,ra,0xe
    80000238:	000403b7          	lui	t2,0x40
    8000023c:	fff3839b          	addiw	t2,t2,-1 # 3ffff <_start-0x7ffc0001>
    80000240:	26771863          	bne	a4,t2,800004b0 <fail>

0000000080000244 <test_11>:
    80000244:	00b00193          	li	gp,11
    80000248:	fff00093          	li	ra,-1
    8000024c:	01f0d71b          	srliw	a4,ra,0x1f
    80000250:	00100393          	li	t2,1
    80000254:	24771e63          	bne	a4,t2,800004b0 <fail>

0000000080000258 <test_12>:
    80000258:	00c00193          	li	gp,12
    8000025c:	212120b7          	lui	ra,0x21212
    80000260:	1210809b          	addiw	ra,ra,289 # 21212121 <_start-0x5edededf>
    80000264:	0000d71b          	srliw	a4,ra,0x0
    80000268:	212123b7          	lui	t2,0x21212
    8000026c:	1213839b          	addiw	t2,t2,289 # 21212121 <_start-0x5edededf>
    80000270:	24771063          	bne	a4,t2,800004b0 <fail>

0000000080000274 <test_13>:
    80000274:	00d00193          	li	gp,13
    80000278:	212120b7          	lui	ra,0x21212
    8000027c:	1210809b          	addiw	ra,ra,289 # 21212121 <_start-0x5edededf>
    80000280:	0010d71b          	srliw	a4,ra,0x1
    80000284:	109093b7          	lui	t2,0x10909
    80000288:	0903839b          	addiw	t2,t2,144 # 10909090 <_start-0x6f6f6f70>
    8000028c:	22771263          	bne	a4,t2,800004b0 <fail>

0000000080000290 <test_14>:
    80000290:	00e00193          	li	gp,14
    80000294:	212120b7          	lui	ra,0x21212
    80000298:	1210809b          	addiw	ra,ra,289 # 21212121 <_start-0x5edededf>
    8000029c:	0070d71b          	srliw	a4,ra,0x7
    800002a0:	004243b7          	lui	t2,0x424
    800002a4:	2423839b          	addiw	t2,t2,578 # 424242 <_start-0x7fbdbdbe>
    800002a8:	20771463          	bne	a4,t2,800004b0 <fail>

00000000800002ac <test_15>:
    800002ac:	00f00193          	li	gp,15
    800002b0:	212120b7          	lui	ra,0x21212
    800002b4:	1210809b          	addiw	ra,ra,289 # 21212121 <_start-0x5edededf>
    800002b8:	00e0d71b          	srliw	a4,ra,0xe
    800002bc:	000083b7          	lui	t2,0x8
    800002c0:	4843839b          	addiw	t2,t2,1156 # 8484 <_start-0x7fff7b7c>
    800002c4:	1e771663          	bne	a4,t2,800004b0 <fail>

00000000800002c8 <test_16>:
    800002c8:	01000193          	li	gp,16
    800002cc:	212120b7          	lui	ra,0x21212
    800002d0:	1210809b          	addiw	ra,ra,289 # 21212121 <_start-0x5edededf>
    800002d4:	01f0d71b          	srliw	a4,ra,0x1f
    800002d8:	00000393          	li	t2,0
    800002dc:	1c771a63          	bne	a4,t2,800004b0 <fail>

00000000800002e0 <test_44>:
    800002e0:	02c00193          	li	gp,44
    800002e4:	fff120b7          	lui	ra,0xfff12
    800002e8:	3450809b          	addiw	ra,ra,837 # fffffffffff12345 <_end+0xffffffff7ff10345>
    800002ec:	00c09093          	slli	ra,ra,0xc
    800002f0:	67808093          	addi	ra,ra,1656
    800002f4:	0000d71b          	srliw	a4,ra,0x0
    800002f8:	123453b7          	lui	t2,0x12345
    800002fc:	6783839b          	addiw	t2,t2,1656 # 12345678 <_start-0x6dcba988>
    80000300:	1a771863          	bne	a4,t2,800004b0 <fail>

0000000080000304 <test_45>:
    80000304:	02d00193          	li	gp,45
    80000308:	fff120b7          	lui	ra,0xfff12
    8000030c:	3450809b          	addiw	ra,ra,837 # fffffffffff12345 <_end+0xffffffff7ff10345>
    80000310:	00c09093          	slli	ra,ra,0xc
    80000314:	67808093          	addi	ra,ra,1656
    80000318:	0040d71b          	srliw	a4,ra,0x4
    8000031c:	012343b7          	lui	t2,0x1234
    80000320:	5673839b          	addiw	t2,t2,1383 # 1234567 <_start-0x7edcba99>
    80000324:	18771663          	bne	a4,t2,800004b0 <fail>

0000000080000328 <test_46>:
    80000328:	02e00193          	li	gp,46
    8000032c:	000920b7          	lui	ra,0x92
    80000330:	3450809b          	addiw	ra,ra,837 # 92345 <_start-0x7ff6dcbb>
    80000334:	00c09093          	slli	ra,ra,0xc
    80000338:	67808093          	addi	ra,ra,1656
    8000033c:	0000d71b          	srliw	a4,ra,0x0
    80000340:	923453b7          	lui	t2,0x92345
    80000344:	6783839b          	addiw	t2,t2,1656 # ffffffff92345678 <_end+0xffffffff12343678>
    80000348:	16771463          	bne	a4,t2,800004b0 <fail>

000000008000034c <test_47>:
    8000034c:	02f00193          	li	gp,47
    80000350:	000920b7          	lui	ra,0x92
    80000354:	3450809b          	addiw	ra,ra,837 # 92345 <_start-0x7ff6dcbb>
    80000358:	00c09093          	slli	ra,ra,0xc
    8000035c:	67808093          	addi	ra,ra,1656
    80000360:	0040d71b          	srliw	a4,ra,0x4
    80000364:	092343b7          	lui	t2,0x9234
    80000368:	5673839b          	addiw	t2,t2,1383 # 9234567 <_start-0x76dcba99>
    8000036c:	14771263          	bne	a4,t2,800004b0 <fail>

0000000080000370 <test_17>:
    80000370:	01100193          	li	gp,17
    80000374:	800000b7          	lui	ra,0x80000
    80000378:	0070d09b          	srliw	ra,ra,0x7
    8000037c:	010003b7          	lui	t2,0x1000
    80000380:	12709863          	bne	ra,t2,800004b0 <fail>

0000000080000384 <test_18>:
    80000384:	01200193          	li	gp,18
    80000388:	00000213          	li	tp,0
    8000038c:	800000b7          	lui	ra,0x80000
    80000390:	0070d71b          	srliw	a4,ra,0x7
    80000394:	00070313          	mv	t1,a4
    80000398:	00120213          	addi	tp,tp,1 # 1 <_start-0x7fffffff>
    8000039c:	00200293          	li	t0,2
    800003a0:	fe5216e3          	bne	tp,t0,8000038c <test_18+0x8>
    800003a4:	010003b7          	lui	t2,0x1000
    800003a8:	10731463          	bne	t1,t2,800004b0 <fail>

00000000800003ac <test_19>:
    800003ac:	01300193          	li	gp,19
    800003b0:	00000213          	li	tp,0
    800003b4:	800000b7          	lui	ra,0x80000
    800003b8:	00e0d71b          	srliw	a4,ra,0xe
    800003bc:	00000013          	nop
    800003c0:	00070313          	mv	t1,a4
    800003c4:	00120213          	addi	tp,tp,1 # 1 <_start-0x7fffffff>
    800003c8:	00200293          	li	t0,2
    800003cc:	fe5214e3          	bne	tp,t0,800003b4 <test_19+0x8>
    800003d0:	000203b7          	lui	t2,0x20
    800003d4:	0c731e63          	bne	t1,t2,800004b0 <fail>

00000000800003d8 <test_20>:
    800003d8:	01400193          	li	gp,20
    800003dc:	00000213          	li	tp,0
    800003e0:	800000b7          	lui	ra,0x80000
    800003e4:	0010809b          	addiw	ra,ra,1 # ffffffff80000001 <_end+0xfffffffeffffe001>
    800003e8:	01f0d71b          	srliw	a4,ra,0x1f
    800003ec:	00000013          	nop
    800003f0:	00000013          	nop
    800003f4:	00070313          	mv	t1,a4
    800003f8:	00120213          	addi	tp,tp,1 # 1 <_start-0x7fffffff>
    800003fc:	00200293          	li	t0,2
    80000400:	fe5210e3          	bne	tp,t0,800003e0 <test_20+0x8>
    80000404:	00100393          	li	t2,1
    80000408:	0a731463          	bne	t1,t2,800004b0 <fail>

000000008000040c <test_21>:
    8000040c:	01500193          	li	gp,21
    80000410:	00000213          	li	tp,0
    80000414:	800000b7          	lui	ra,0x80000
    80000418:	0070d71b          	srliw	a4,ra,0x7
    8000041c:	00120213          	addi	tp,tp,1 # 1 <_start-0x7fffffff>
    80000420:	00200293          	li	t0,2
    80000424:	fe5218e3          	bne	tp,t0,80000414 <test_21+0x8>
    80000428:	010003b7          	lui	t2,0x1000
    8000042c:	08771263          	bne	a4,t2,800004b0 <fail>

0000000080000430 <test_22>:
    80000430:	01600193          	li	gp,22
    80000434:	00000213          	li	tp,0
    80000438:	800000b7          	lui	ra,0x80000
    8000043c:	00000013          	nop
    80000440:	00e0d71b          	srliw	a4,ra,0xe
    80000444:	00120213          	addi	tp,tp,1 # 1 <_start-0x7fffffff>
    80000448:	00200293          	li	t0,2
    8000044c:	fe5216e3          	bne	tp,t0,80000438 <test_22+0x8>
    80000450:	000203b7          	lui	t2,0x20
    80000454:	04771e63          	bne	a4,t2,800004b0 <fail>

0000000080000458 <test_23>:
    80000458:	01700193          	li	gp,23
    8000045c:	00000213          	li	tp,0
    80000460:	800000b7          	lui	ra,0x80000
    80000464:	0010809b          	addiw	ra,ra,1 # ffffffff80000001 <_end+0xfffffffeffffe001>
    80000468:	00000013          	nop
    8000046c:	00000013          	nop
    80000470:	01f0d71b          	srliw	a4,ra,0x1f
    80000474:	00120213          	addi	tp,tp,1 # 1 <_start-0x7fffffff>
    80000478:	00200293          	li	t0,2
    8000047c:	fe5212e3          	bne	tp,t0,80000460 <test_23+0x8>
    80000480:	00100393          	li	t2,1
    80000484:	02771663          	bne	a4,t2,800004b0 <fail>

0000000080000488 <test_24>:
    80000488:	01800193          	li	gp,24
    8000048c:	01f0509b          	srliw	ra,zero,0x1f
    80000490:	00000393          	li	t2,0
    80000494:	00709e63          	bne	ra,t2,800004b0 <fail>

0000000080000498 <test_25>:
    80000498:	01900193          	li	gp,25
    8000049c:	01f00093          	li	ra,31
    800004a0:	01c0d01b          	srliw	zero,ra,0x1c
    800004a4:	00000393          	li	t2,0
    800004a8:	00701463          	bne	zero,t2,800004b0 <fail>
    800004ac:	02301063          	bne	zero,gp,800004cc <pass>

00000000800004b0 <fail>:
    800004b0:	0ff0000f          	fence
    800004b4:	00018063          	beqz	gp,800004b4 <fail+0x4>
    800004b8:	00119193          	slli	gp,gp,0x1
    800004bc:	0011e193          	ori	gp,gp,1
    800004c0:	05d00893          	li	a7,93
    800004c4:	00018513          	mv	a0,gp
    800004c8:	00000073          	ecall

00000000800004cc <pass>:
    800004cc:	0ff0000f          	fence
    800004d0:	00100193          	li	gp,1
    800004d4:	05d00893          	li	a7,93
    800004d8:	00000513          	li	a0,0
    800004dc:	00000073          	ecall
    800004e0:	c0001073          	unimp
    800004e4:	0000                	.2byte	0x0
    800004e6:	0000                	.2byte	0x0
    800004e8:	0000                	.2byte	0x0
    800004ea:	0000                	.2byte	0x0
    800004ec:	0000                	.2byte	0x0
    800004ee:	0000                	.2byte	0x0
    800004f0:	0000                	.2byte	0x0
    800004f2:	0000                	.2byte	0x0
    800004f4:	0000                	.2byte	0x0
    800004f6:	0000                	.2byte	0x0
    800004f8:	0000                	.2byte	0x0
    800004fa:	0000                	.2byte	0x0
