
rv64ui-p-sd:     file format elf64-littleriscv


Disassembly of section .text.init:

0000000080000000 <_start>:
    80000000:	0500006f          	j	80000050 <reset_vector>

0000000080000004 <trap_vector>:
    80000004:	34202f73          	csrr	t5,mcause
    80000008:	00800f93          	li	t6,8
    8000000c:	03ff0863          	beq	t5,t6,8000003c <write_tohost>
    80000010:	00900f93          	li	t6,9
    80000014:	03ff0463          	beq	t5,t6,8000003c <write_tohost>
    80000018:	00b00f93          	li	t6,11
    8000001c:	03ff0063          	beq	t5,t6,8000003c <write_tohost>
    80000020:	00000f13          	li	t5,0
    80000024:	000f0463          	beqz	t5,8000002c <trap_vector+0x28>
    80000028:	000f0067          	jr	t5
    8000002c:	34202f73          	csrr	t5,mcause
    80000030:	000f5463          	bgez	t5,80000038 <handle_exception>
    80000034:	0040006f          	j	80000038 <handle_exception>

0000000080000038 <handle_exception>:
    80000038:	5391e193          	ori	gp,gp,1337

000000008000003c <write_tohost>:
    8000003c:	00001f17          	auipc	t5,0x1
    80000040:	fc3f2223          	sw	gp,-60(t5) # 80001000 <tohost>
    80000044:	00001f17          	auipc	t5,0x1
    80000048:	fc0f2023          	sw	zero,-64(t5) # 80001004 <tohost+0x4>
    8000004c:	ff1ff06f          	j	8000003c <write_tohost>

0000000080000050 <reset_vector>:
    80000050:	00000093          	li	ra,0
    80000054:	00000113          	li	sp,0
    80000058:	00000193          	li	gp,0
    8000005c:	00000213          	li	tp,0
    80000060:	00000293          	li	t0,0
    80000064:	00000313          	li	t1,0
    80000068:	00000393          	li	t2,0
    8000006c:	00000413          	li	s0,0
    80000070:	00000493          	li	s1,0
    80000074:	00000513          	li	a0,0
    80000078:	00000593          	li	a1,0
    8000007c:	00000613          	li	a2,0
    80000080:	00000693          	li	a3,0
    80000084:	00000713          	li	a4,0
    80000088:	00000793          	li	a5,0
    8000008c:	00000813          	li	a6,0
    80000090:	00000893          	li	a7,0
    80000094:	00000913          	li	s2,0
    80000098:	00000993          	li	s3,0
    8000009c:	00000a13          	li	s4,0
    800000a0:	00000a93          	li	s5,0
    800000a4:	00000b13          	li	s6,0
    800000a8:	00000b93          	li	s7,0
    800000ac:	00000c13          	li	s8,0
    800000b0:	00000c93          	li	s9,0
    800000b4:	00000d13          	li	s10,0
    800000b8:	00000d93          	li	s11,0
    800000bc:	00000e13          	li	t3,0
    800000c0:	00000e93          	li	t4,0
    800000c4:	00000f13          	li	t5,0
    800000c8:	00000f93          	li	t6,0
    800000cc:	f1402573          	csrr	a0,mhartid
    800000d0:	00051063          	bnez	a0,800000d0 <reset_vector+0x80>
    800000d4:	00000297          	auipc	t0,0x0
    800000d8:	01028293          	addi	t0,t0,16 # 800000e4 <reset_vector+0x94>
    800000dc:	30529073          	csrw	mtvec,t0
    800000e0:	18005073          	csrwi	satp,0
    800000e4:	00000297          	auipc	t0,0x0
    800000e8:	02428293          	addi	t0,t0,36 # 80000108 <reset_vector+0xb8>
    800000ec:	30529073          	csrw	mtvec,t0
    800000f0:	0010029b          	addiw	t0,zero,1
    800000f4:	03529293          	slli	t0,t0,0x35
    800000f8:	fff28293          	addi	t0,t0,-1
    800000fc:	3b029073          	csrw	pmpaddr0,t0
    80000100:	01f00293          	li	t0,31
    80000104:	3a029073          	csrw	pmpcfg0,t0
    80000108:	30405073          	csrwi	mie,0
    8000010c:	00000297          	auipc	t0,0x0
    80000110:	01428293          	addi	t0,t0,20 # 80000120 <reset_vector+0xd0>
    80000114:	30529073          	csrw	mtvec,t0
    80000118:	30205073          	csrwi	medeleg,0
    8000011c:	30305073          	csrwi	mideleg,0
    80000120:	00000193          	li	gp,0
    80000124:	00000297          	auipc	t0,0x0
    80000128:	ee028293          	addi	t0,t0,-288 # 80000004 <trap_vector>
    8000012c:	30529073          	csrw	mtvec,t0
    80000130:	00100513          	li	a0,1
    80000134:	01f51513          	slli	a0,a0,0x1f
    80000138:	00055c63          	bgez	a0,80000150 <reset_vector+0x100>
    8000013c:	0ff0000f          	fence
    80000140:	00100193          	li	gp,1
    80000144:	05d00893          	li	a7,93
    80000148:	00000513          	li	a0,0
    8000014c:	00000073          	ecall
    80000150:	00000293          	li	t0,0
    80000154:	00028a63          	beqz	t0,80000168 <reset_vector+0x118>
    80000158:	10529073          	csrw	stvec,t0
    8000015c:	0000b2b7          	lui	t0,0xb
    80000160:	1092829b          	addiw	t0,t0,265 # b109 <_start-0x7fff4ef7>
    80000164:	30229073          	csrw	medeleg,t0
    80000168:	30005073          	csrwi	mstatus,0
    8000016c:	00000297          	auipc	t0,0x0
    80000170:	01428293          	addi	t0,t0,20 # 80000180 <test_2>
    80000174:	34129073          	csrw	mepc,t0
    80000178:	f1402573          	csrr	a0,mhartid
    8000017c:	30200073          	mret

0000000080000180 <test_2>:
    80000180:	00200193          	li	gp,2
    80000184:	00002097          	auipc	ra,0x2
    80000188:	e7c08093          	addi	ra,ra,-388 # 80002000 <begin_signature>
    8000018c:	00550137          	lui	sp,0x550
    80000190:	0551011b          	addiw	sp,sp,85 # 550055 <_start-0x7faaffab>
    80000194:	01011113          	slli	sp,sp,0x10
    80000198:	05510113          	addi	sp,sp,85
    8000019c:	01111113          	slli	sp,sp,0x11
    800001a0:	0aa10113          	addi	sp,sp,170
    800001a4:	00000797          	auipc	a5,0x0
    800001a8:	01478793          	addi	a5,a5,20 # 800001b8 <test_2+0x38>
    800001ac:	0020b023          	sd	sp,0(ra)
    800001b0:	0000b703          	ld	a4,0(ra)
    800001b4:	0080006f          	j	800001bc <test_2+0x3c>
    800001b8:	00010713          	mv	a4,sp
    800001bc:	005503b7          	lui	t2,0x550
    800001c0:	0553839b          	addiw	t2,t2,85 # 550055 <_start-0x7faaffab>
    800001c4:	01039393          	slli	t2,t2,0x10
    800001c8:	05538393          	addi	t2,t2,85
    800001cc:	01139393          	slli	t2,t2,0x11
    800001d0:	0aa38393          	addi	t2,t2,170
    800001d4:	66771863          	bne	a4,t2,80000844 <fail>

00000000800001d8 <test_3>:
    800001d8:	00300193          	li	gp,3
    800001dc:	00002097          	auipc	ra,0x2
    800001e0:	e2408093          	addi	ra,ra,-476 # 80002000 <begin_signature>
    800001e4:	ffd50137          	lui	sp,0xffd50
    800001e8:	0551011b          	addiw	sp,sp,85 # ffffffffffd50055 <_end+0xffffffff7fd4e005>
    800001ec:	01011113          	slli	sp,sp,0x10
    800001f0:	05510113          	addi	sp,sp,85
    800001f4:	00d11113          	slli	sp,sp,0xd
    800001f8:	00b10113          	addi	sp,sp,11
    800001fc:	00c11113          	slli	sp,sp,0xc
    80000200:	a0010113          	addi	sp,sp,-1536
    80000204:	00000797          	auipc	a5,0x0
    80000208:	01478793          	addi	a5,a5,20 # 80000218 <test_3+0x40>
    8000020c:	0020b423          	sd	sp,8(ra)
    80000210:	0080b703          	ld	a4,8(ra)
    80000214:	0080006f          	j	8000021c <test_3+0x44>
    80000218:	00010713          	mv	a4,sp
    8000021c:	ffd503b7          	lui	t2,0xffd50
    80000220:	0553839b          	addiw	t2,t2,85 # ffffffffffd50055 <_end+0xffffffff7fd4e005>
    80000224:	01039393          	slli	t2,t2,0x10
    80000228:	05538393          	addi	t2,t2,85
    8000022c:	00d39393          	slli	t2,t2,0xd
    80000230:	00b38393          	addi	t2,t2,11
    80000234:	00c39393          	slli	t2,t2,0xc
    80000238:	a0038393          	addi	t2,t2,-1536
    8000023c:	60771463          	bne	a4,t2,80000844 <fail>

0000000080000240 <test_4>:
    80000240:	00400193          	li	gp,4
    80000244:	00002097          	auipc	ra,0x2
    80000248:	dbc08093          	addi	ra,ra,-580 # 80002000 <begin_signature>
    8000024c:	00550137          	lui	sp,0x550
    80000250:	0551011b          	addiw	sp,sp,85 # 550055 <_start-0x7faaffab>
    80000254:	00d11113          	slli	sp,sp,0xd
    80000258:	00b10113          	addi	sp,sp,11
    8000025c:	00c11113          	slli	sp,sp,0xc
    80000260:	a0110113          	addi	sp,sp,-1535
    80000264:	00c11113          	slli	sp,sp,0xc
    80000268:	aa010113          	addi	sp,sp,-1376
    8000026c:	00000797          	auipc	a5,0x0
    80000270:	01478793          	addi	a5,a5,20 # 80000280 <test_4+0x40>
    80000274:	0020b823          	sd	sp,16(ra)
    80000278:	0100b703          	ld	a4,16(ra)
    8000027c:	0080006f          	j	80000284 <test_4+0x44>
    80000280:	00010713          	mv	a4,sp
    80000284:	005503b7          	lui	t2,0x550
    80000288:	0553839b          	addiw	t2,t2,85 # 550055 <_start-0x7faaffab>
    8000028c:	00d39393          	slli	t2,t2,0xd
    80000290:	00b38393          	addi	t2,t2,11
    80000294:	00c39393          	slli	t2,t2,0xc
    80000298:	a0138393          	addi	t2,t2,-1535
    8000029c:	00c39393          	slli	t2,t2,0xc
    800002a0:	aa038393          	addi	t2,t2,-1376
    800002a4:	5a771063          	bne	a4,t2,80000844 <fail>

00000000800002a8 <test_5>:
    800002a8:	00500193          	li	gp,5
    800002ac:	00002097          	auipc	ra,0x2
    800002b0:	d5408093          	addi	ra,ra,-684 # 80002000 <begin_signature>
    800002b4:	fffd0137          	lui	sp,0xfffd0
    800002b8:	0551011b          	addiw	sp,sp,85 # fffffffffffd0055 <_end+0xffffffff7ffce005>
    800002bc:	01011113          	slli	sp,sp,0x10
    800002c0:	05510113          	addi	sp,sp,85
    800002c4:	01011113          	slli	sp,sp,0x10
    800002c8:	05510113          	addi	sp,sp,85
    800002cc:	00d11113          	slli	sp,sp,0xd
    800002d0:	00a10113          	addi	sp,sp,10
    800002d4:	00000797          	auipc	a5,0x0
    800002d8:	01478793          	addi	a5,a5,20 # 800002e8 <test_5+0x40>
    800002dc:	0020bc23          	sd	sp,24(ra)
    800002e0:	0180b703          	ld	a4,24(ra)
    800002e4:	0080006f          	j	800002ec <test_5+0x44>
    800002e8:	00010713          	mv	a4,sp
    800002ec:	fffd03b7          	lui	t2,0xfffd0
    800002f0:	0553839b          	addiw	t2,t2,85 # fffffffffffd0055 <_end+0xffffffff7ffce005>
    800002f4:	01039393          	slli	t2,t2,0x10
    800002f8:	05538393          	addi	t2,t2,85
    800002fc:	01039393          	slli	t2,t2,0x10
    80000300:	05538393          	addi	t2,t2,85
    80000304:	00d39393          	slli	t2,t2,0xd
    80000308:	00a38393          	addi	t2,t2,10
    8000030c:	52771c63          	bne	a4,t2,80000844 <fail>

0000000080000310 <test_6>:
    80000310:	00600193          	li	gp,6
    80000314:	00002097          	auipc	ra,0x2
    80000318:	d2408093          	addi	ra,ra,-732 # 80002038 <tdat8>
    8000031c:	00550137          	lui	sp,0x550
    80000320:	0551011b          	addiw	sp,sp,85 # 550055 <_start-0x7faaffab>
    80000324:	01011113          	slli	sp,sp,0x10
    80000328:	05510113          	addi	sp,sp,85
    8000032c:	01111113          	slli	sp,sp,0x11
    80000330:	0aa10113          	addi	sp,sp,170
    80000334:	00000797          	auipc	a5,0x0
    80000338:	01478793          	addi	a5,a5,20 # 80000348 <test_6+0x38>
    8000033c:	fe20b423          	sd	sp,-24(ra)
    80000340:	fe80b703          	ld	a4,-24(ra)
    80000344:	0080006f          	j	8000034c <test_6+0x3c>
    80000348:	00010713          	mv	a4,sp
    8000034c:	005503b7          	lui	t2,0x550
    80000350:	0553839b          	addiw	t2,t2,85 # 550055 <_start-0x7faaffab>
    80000354:	01039393          	slli	t2,t2,0x10
    80000358:	05538393          	addi	t2,t2,85
    8000035c:	01139393          	slli	t2,t2,0x11
    80000360:	0aa38393          	addi	t2,t2,170
    80000364:	4e771063          	bne	a4,t2,80000844 <fail>

0000000080000368 <test_7>:
    80000368:	00700193          	li	gp,7
    8000036c:	00002097          	auipc	ra,0x2
    80000370:	ccc08093          	addi	ra,ra,-820 # 80002038 <tdat8>
    80000374:	ffd50137          	lui	sp,0xffd50
    80000378:	0551011b          	addiw	sp,sp,85 # ffffffffffd50055 <_end+0xffffffff7fd4e005>
    8000037c:	01011113          	slli	sp,sp,0x10
    80000380:	05510113          	addi	sp,sp,85
    80000384:	00d11113          	slli	sp,sp,0xd
    80000388:	00b10113          	addi	sp,sp,11
    8000038c:	00c11113          	slli	sp,sp,0xc
    80000390:	a0010113          	addi	sp,sp,-1536
    80000394:	00000797          	auipc	a5,0x0
    80000398:	01478793          	addi	a5,a5,20 # 800003a8 <test_7+0x40>
    8000039c:	fe20b823          	sd	sp,-16(ra)
    800003a0:	ff00b703          	ld	a4,-16(ra)
    800003a4:	0080006f          	j	800003ac <test_7+0x44>
    800003a8:	00010713          	mv	a4,sp
    800003ac:	ffd503b7          	lui	t2,0xffd50
    800003b0:	0553839b          	addiw	t2,t2,85 # ffffffffffd50055 <_end+0xffffffff7fd4e005>
    800003b4:	01039393          	slli	t2,t2,0x10
    800003b8:	05538393          	addi	t2,t2,85
    800003bc:	00d39393          	slli	t2,t2,0xd
    800003c0:	00b38393          	addi	t2,t2,11
    800003c4:	00c39393          	slli	t2,t2,0xc
    800003c8:	a0038393          	addi	t2,t2,-1536
    800003cc:	46771c63          	bne	a4,t2,80000844 <fail>

00000000800003d0 <test_8>:
    800003d0:	00800193          	li	gp,8
    800003d4:	00002097          	auipc	ra,0x2
    800003d8:	c6408093          	addi	ra,ra,-924 # 80002038 <tdat8>
    800003dc:	00550137          	lui	sp,0x550
    800003e0:	0551011b          	addiw	sp,sp,85 # 550055 <_start-0x7faaffab>
    800003e4:	00d11113          	slli	sp,sp,0xd
    800003e8:	00b10113          	addi	sp,sp,11
    800003ec:	00c11113          	slli	sp,sp,0xc
    800003f0:	a0110113          	addi	sp,sp,-1535
    800003f4:	00c11113          	slli	sp,sp,0xc
    800003f8:	aa010113          	addi	sp,sp,-1376
    800003fc:	00000797          	auipc	a5,0x0
    80000400:	01478793          	addi	a5,a5,20 # 80000410 <test_8+0x40>
    80000404:	fe20bc23          	sd	sp,-8(ra)
    80000408:	ff80b703          	ld	a4,-8(ra)
    8000040c:	0080006f          	j	80000414 <test_8+0x44>
    80000410:	00010713          	mv	a4,sp
    80000414:	005503b7          	lui	t2,0x550
    80000418:	0553839b          	addiw	t2,t2,85 # 550055 <_start-0x7faaffab>
    8000041c:	00d39393          	slli	t2,t2,0xd
    80000420:	00b38393          	addi	t2,t2,11
    80000424:	00c39393          	slli	t2,t2,0xc
    80000428:	a0138393          	addi	t2,t2,-1535
    8000042c:	00c39393          	slli	t2,t2,0xc
    80000430:	aa038393          	addi	t2,t2,-1376
    80000434:	40771863          	bne	a4,t2,80000844 <fail>

0000000080000438 <test_9>:
    80000438:	00900193          	li	gp,9
    8000043c:	00002097          	auipc	ra,0x2
    80000440:	bfc08093          	addi	ra,ra,-1028 # 80002038 <tdat8>
    80000444:	fffd0137          	lui	sp,0xfffd0
    80000448:	0551011b          	addiw	sp,sp,85 # fffffffffffd0055 <_end+0xffffffff7ffce005>
    8000044c:	01011113          	slli	sp,sp,0x10
    80000450:	05510113          	addi	sp,sp,85
    80000454:	01011113          	slli	sp,sp,0x10
    80000458:	05510113          	addi	sp,sp,85
    8000045c:	00d11113          	slli	sp,sp,0xd
    80000460:	00a10113          	addi	sp,sp,10
    80000464:	00000797          	auipc	a5,0x0
    80000468:	01478793          	addi	a5,a5,20 # 80000478 <test_9+0x40>
    8000046c:	0020b023          	sd	sp,0(ra)
    80000470:	0000b703          	ld	a4,0(ra)
    80000474:	0080006f          	j	8000047c <test_9+0x44>
    80000478:	00010713          	mv	a4,sp
    8000047c:	fffd03b7          	lui	t2,0xfffd0
    80000480:	0553839b          	addiw	t2,t2,85 # fffffffffffd0055 <_end+0xffffffff7ffce005>
    80000484:	01039393          	slli	t2,t2,0x10
    80000488:	05538393          	addi	t2,t2,85
    8000048c:	01039393          	slli	t2,t2,0x10
    80000490:	05538393          	addi	t2,t2,85
    80000494:	00d39393          	slli	t2,t2,0xd
    80000498:	00a38393          	addi	t2,t2,10
    8000049c:	3a771463          	bne	a4,t2,80000844 <fail>

00000000800004a0 <test_10>:
    800004a0:	00a00193          	li	gp,10
    800004a4:	00002097          	auipc	ra,0x2
    800004a8:	b9c08093          	addi	ra,ra,-1124 # 80002040 <tdat9>
    800004ac:	00247137          	lui	sp,0x247
    800004b0:	8ad1011b          	addiw	sp,sp,-1875 # 2468ad <_start-0x7fdb9753>
    800004b4:	00e11113          	slli	sp,sp,0xe
    800004b8:	c0910113          	addi	sp,sp,-1015
    800004bc:	00d11113          	slli	sp,sp,0xd
    800004c0:	34510113          	addi	sp,sp,837
    800004c4:	00c11113          	slli	sp,sp,0xc
    800004c8:	67810113          	addi	sp,sp,1656
    800004cc:	fe008213          	addi	tp,ra,-32
    800004d0:	02223023          	sd	sp,32(tp) # 20 <_start-0x7fffffe0>
    800004d4:	0000b283          	ld	t0,0(ra)
    800004d8:	002473b7          	lui	t2,0x247
    800004dc:	8ad3839b          	addiw	t2,t2,-1875 # 2468ad <_start-0x7fdb9753>
    800004e0:	00e39393          	slli	t2,t2,0xe
    800004e4:	c0938393          	addi	t2,t2,-1015
    800004e8:	00d39393          	slli	t2,t2,0xd
    800004ec:	34538393          	addi	t2,t2,837
    800004f0:	00c39393          	slli	t2,t2,0xc
    800004f4:	67838393          	addi	t2,t2,1656
    800004f8:	34729663          	bne	t0,t2,80000844 <fail>

00000000800004fc <test_11>:
    800004fc:	00b00193          	li	gp,11
    80000500:	00002097          	auipc	ra,0x2
    80000504:	b4008093          	addi	ra,ra,-1216 # 80002040 <tdat9>
    80000508:	00b04137          	lui	sp,0xb04
    8000050c:	2611011b          	addiw	sp,sp,609 # b04261 <_start-0x7f4fbd9f>
    80000510:	00c11113          	slli	sp,sp,0xc
    80000514:	30b10113          	addi	sp,sp,779
    80000518:	00f11113          	slli	sp,sp,0xf
    8000051c:	21310113          	addi	sp,sp,531
    80000520:	00c11113          	slli	sp,sp,0xc
    80000524:	09810113          	addi	sp,sp,152
    80000528:	ffd08093          	addi	ra,ra,-3
    8000052c:	0020b5a3          	sd	sp,11(ra)
    80000530:	00002217          	auipc	tp,0x2
    80000534:	b1820213          	addi	tp,tp,-1256 # 80002048 <tdat10>
    80000538:	00023283          	ld	t0,0(tp) # 0 <_start-0x80000000>
    8000053c:	00b043b7          	lui	t2,0xb04
    80000540:	2613839b          	addiw	t2,t2,609 # b04261 <_start-0x7f4fbd9f>
    80000544:	00c39393          	slli	t2,t2,0xc
    80000548:	30b38393          	addi	t2,t2,779
    8000054c:	00f39393          	slli	t2,t2,0xf
    80000550:	21338393          	addi	t2,t2,531
    80000554:	00c39393          	slli	t2,t2,0xc
    80000558:	09838393          	addi	t2,t2,152
    8000055c:	2e729463          	bne	t0,t2,80000844 <fail>

0000000080000560 <test_12>:
    80000560:	00c00193          	li	gp,12
    80000564:	00000213          	li	tp,0
    80000568:	0abbd0b7          	lui	ra,0xabbd
    8000056c:	cdd0809b          	addiw	ra,ra,-803 # abbccdd <_start-0x75443323>
    80000570:	00002117          	auipc	sp,0x2
    80000574:	a9010113          	addi	sp,sp,-1392 # 80002000 <begin_signature>
    80000578:	00113023          	sd	ra,0(sp)
    8000057c:	00013703          	ld	a4,0(sp)
    80000580:	0abbd3b7          	lui	t2,0xabbd
    80000584:	cdd3839b          	addiw	t2,t2,-803 # abbccdd <_start-0x75443323>
    80000588:	2a771e63          	bne	a4,t2,80000844 <fail>
    8000058c:	00120213          	addi	tp,tp,1 # 1 <_start-0x7fffffff>
    80000590:	00200293          	li	t0,2
    80000594:	fc521ae3          	bne	tp,t0,80000568 <test_12+0x8>

0000000080000598 <test_13>:
    80000598:	00d00193          	li	gp,13
    8000059c:	00000213          	li	tp,0
    800005a0:	0aabc0b7          	lui	ra,0xaabc
    800005a4:	ccd0809b          	addiw	ra,ra,-819 # aabbccd <_start-0x75544333>
    800005a8:	00002117          	auipc	sp,0x2
    800005ac:	a5810113          	addi	sp,sp,-1448 # 80002000 <begin_signature>
    800005b0:	00000013          	nop
    800005b4:	00113423          	sd	ra,8(sp)
    800005b8:	00813703          	ld	a4,8(sp)
    800005bc:	0aabc3b7          	lui	t2,0xaabc
    800005c0:	ccd3839b          	addiw	t2,t2,-819 # aabbccd <_start-0x75544333>
    800005c4:	28771063          	bne	a4,t2,80000844 <fail>
    800005c8:	00120213          	addi	tp,tp,1 # 1 <_start-0x7fffffff>
    800005cc:	00200293          	li	t0,2
    800005d0:	fc5218e3          	bne	tp,t0,800005a0 <test_13+0x8>

00000000800005d4 <test_14>:
    800005d4:	00e00193          	li	gp,14
    800005d8:	00000213          	li	tp,0
    800005dc:	0daac0b7          	lui	ra,0xdaac
    800005e0:	bcc0809b          	addiw	ra,ra,-1076 # daabbcc <_start-0x72554434>
    800005e4:	00002117          	auipc	sp,0x2
    800005e8:	a1c10113          	addi	sp,sp,-1508 # 80002000 <begin_signature>
    800005ec:	00000013          	nop
    800005f0:	00000013          	nop
    800005f4:	00113823          	sd	ra,16(sp)
    800005f8:	01013703          	ld	a4,16(sp)
    800005fc:	0daac3b7          	lui	t2,0xdaac
    80000600:	bcc3839b          	addiw	t2,t2,-1076 # daabbcc <_start-0x72554434>
    80000604:	24771063          	bne	a4,t2,80000844 <fail>
    80000608:	00120213          	addi	tp,tp,1 # 1 <_start-0x7fffffff>
    8000060c:	00200293          	li	t0,2
    80000610:	fc5216e3          	bne	tp,t0,800005dc <test_14+0x8>

0000000080000614 <test_15>:
    80000614:	00f00193          	li	gp,15
    80000618:	00000213          	li	tp,0
    8000061c:	0ddab0b7          	lui	ra,0xddab
    80000620:	bbc0809b          	addiw	ra,ra,-1092 # ddaabbc <_start-0x72255444>
    80000624:	00000013          	nop
    80000628:	00002117          	auipc	sp,0x2
    8000062c:	9d810113          	addi	sp,sp,-1576 # 80002000 <begin_signature>
    80000630:	00113c23          	sd	ra,24(sp)
    80000634:	01813703          	ld	a4,24(sp)
    80000638:	0ddab3b7          	lui	t2,0xddab
    8000063c:	bbc3839b          	addiw	t2,t2,-1092 # ddaabbc <_start-0x72255444>
    80000640:	20771263          	bne	a4,t2,80000844 <fail>
    80000644:	00120213          	addi	tp,tp,1 # 1 <_start-0x7fffffff>
    80000648:	00200293          	li	t0,2
    8000064c:	fc5218e3          	bne	tp,t0,8000061c <test_15+0x8>

0000000080000650 <test_16>:
    80000650:	01000193          	li	gp,16
    80000654:	00000213          	li	tp,0
    80000658:	0cddb0b7          	lui	ra,0xcddb
    8000065c:	abb0809b          	addiw	ra,ra,-1349 # cddaabb <_start-0x73225545>
    80000660:	00000013          	nop
    80000664:	00002117          	auipc	sp,0x2
    80000668:	99c10113          	addi	sp,sp,-1636 # 80002000 <begin_signature>
    8000066c:	00000013          	nop
    80000670:	02113023          	sd	ra,32(sp)
    80000674:	02013703          	ld	a4,32(sp)
    80000678:	0cddb3b7          	lui	t2,0xcddb
    8000067c:	abb3839b          	addiw	t2,t2,-1349 # cddaabb <_start-0x73225545>
    80000680:	1c771263          	bne	a4,t2,80000844 <fail>
    80000684:	00120213          	addi	tp,tp,1 # 1 <_start-0x7fffffff>
    80000688:	00200293          	li	t0,2
    8000068c:	fc5216e3          	bne	tp,t0,80000658 <test_16+0x8>

0000000080000690 <test_17>:
    80000690:	01100193          	li	gp,17
    80000694:	00000213          	li	tp,0
    80000698:	0ccde0b7          	lui	ra,0xccde
    8000069c:	aab0809b          	addiw	ra,ra,-1365 # ccddaab <_start-0x73322555>
    800006a0:	00000013          	nop
    800006a4:	00000013          	nop
    800006a8:	00002117          	auipc	sp,0x2
    800006ac:	95810113          	addi	sp,sp,-1704 # 80002000 <begin_signature>
    800006b0:	02113423          	sd	ra,40(sp)
    800006b4:	02813703          	ld	a4,40(sp)
    800006b8:	0ccde3b7          	lui	t2,0xccde
    800006bc:	aab3839b          	addiw	t2,t2,-1365 # ccddaab <_start-0x73322555>
    800006c0:	18771263          	bne	a4,t2,80000844 <fail>
    800006c4:	00120213          	addi	tp,tp,1 # 1 <_start-0x7fffffff>
    800006c8:	00200293          	li	t0,2
    800006cc:	fc5216e3          	bne	tp,t0,80000698 <test_17+0x8>

00000000800006d0 <test_18>:
    800006d0:	01200193          	li	gp,18
    800006d4:	00000213          	li	tp,0
    800006d8:	00002117          	auipc	sp,0x2
    800006dc:	92810113          	addi	sp,sp,-1752 # 80002000 <begin_signature>
    800006e0:	001120b7          	lui	ra,0x112
    800006e4:	2330809b          	addiw	ra,ra,563 # 112233 <_start-0x7feeddcd>
    800006e8:	00113023          	sd	ra,0(sp)
    800006ec:	00013703          	ld	a4,0(sp)
    800006f0:	001123b7          	lui	t2,0x112
    800006f4:	2333839b          	addiw	t2,t2,563 # 112233 <_start-0x7feeddcd>
    800006f8:	14771663          	bne	a4,t2,80000844 <fail>
    800006fc:	00120213          	addi	tp,tp,1 # 1 <_start-0x7fffffff>
    80000700:	00200293          	li	t0,2
    80000704:	fc521ae3          	bne	tp,t0,800006d8 <test_18+0x8>

0000000080000708 <test_19>:
    80000708:	01300193          	li	gp,19
    8000070c:	00000213          	li	tp,0
    80000710:	00002117          	auipc	sp,0x2
    80000714:	8f010113          	addi	sp,sp,-1808 # 80002000 <begin_signature>
    80000718:	300110b7          	lui	ra,0x30011
    8000071c:	2230809b          	addiw	ra,ra,547 # 30011223 <_start-0x4ffeeddd>
    80000720:	00000013          	nop
    80000724:	00113423          	sd	ra,8(sp)
    80000728:	00813703          	ld	a4,8(sp)
    8000072c:	300113b7          	lui	t2,0x30011
    80000730:	2233839b          	addiw	t2,t2,547 # 30011223 <_start-0x4ffeeddd>
    80000734:	10771863          	bne	a4,t2,80000844 <fail>
    80000738:	00120213          	addi	tp,tp,1 # 1 <_start-0x7fffffff>
    8000073c:	00200293          	li	t0,2
    80000740:	fc5218e3          	bne	tp,t0,80000710 <test_19+0x8>

0000000080000744 <test_20>:
    80000744:	01400193          	li	gp,20
    80000748:	00000213          	li	tp,0
    8000074c:	00002117          	auipc	sp,0x2
    80000750:	8b410113          	addi	sp,sp,-1868 # 80002000 <begin_signature>
    80000754:	330010b7          	lui	ra,0x33001
    80000758:	1220809b          	addiw	ra,ra,290 # 33001122 <_start-0x4cffeede>
    8000075c:	00000013          	nop
    80000760:	00000013          	nop
    80000764:	00113823          	sd	ra,16(sp)
    80000768:	01013703          	ld	a4,16(sp)
    8000076c:	330013b7          	lui	t2,0x33001
    80000770:	1223839b          	addiw	t2,t2,290 # 33001122 <_start-0x4cffeede>
    80000774:	0c771863          	bne	a4,t2,80000844 <fail>
    80000778:	00120213          	addi	tp,tp,1 # 1 <_start-0x7fffffff>
    8000077c:	00200293          	li	t0,2
    80000780:	fc5216e3          	bne	tp,t0,8000074c <test_20+0x8>

0000000080000784 <test_21>:
    80000784:	01500193          	li	gp,21
    80000788:	00000213          	li	tp,0
    8000078c:	00002117          	auipc	sp,0x2
    80000790:	87410113          	addi	sp,sp,-1932 # 80002000 <begin_signature>
    80000794:	00000013          	nop
    80000798:	233000b7          	lui	ra,0x23300
    8000079c:	1120809b          	addiw	ra,ra,274 # 23300112 <_start-0x5ccffeee>
    800007a0:	00113c23          	sd	ra,24(sp)
    800007a4:	01813703          	ld	a4,24(sp)
    800007a8:	233003b7          	lui	t2,0x23300
    800007ac:	1123839b          	addiw	t2,t2,274 # 23300112 <_start-0x5ccffeee>
    800007b0:	08771a63          	bne	a4,t2,80000844 <fail>
    800007b4:	00120213          	addi	tp,tp,1 # 1 <_start-0x7fffffff>
    800007b8:	00200293          	li	t0,2
    800007bc:	fc5218e3          	bne	tp,t0,8000078c <test_21+0x8>

00000000800007c0 <test_22>:
    800007c0:	01600193          	li	gp,22
    800007c4:	00000213          	li	tp,0
    800007c8:	00002117          	auipc	sp,0x2
    800007cc:	83810113          	addi	sp,sp,-1992 # 80002000 <begin_signature>
    800007d0:	00000013          	nop
    800007d4:	223300b7          	lui	ra,0x22330
    800007d8:	0110809b          	addiw	ra,ra,17 # 22330011 <_start-0x5dccffef>
    800007dc:	00000013          	nop
    800007e0:	02113023          	sd	ra,32(sp)
    800007e4:	02013703          	ld	a4,32(sp)
    800007e8:	223303b7          	lui	t2,0x22330
    800007ec:	0113839b          	addiw	t2,t2,17 # 22330011 <_start-0x5dccffef>
    800007f0:	04771a63          	bne	a4,t2,80000844 <fail>
    800007f4:	00120213          	addi	tp,tp,1 # 1 <_start-0x7fffffff>
    800007f8:	00200293          	li	t0,2
    800007fc:	fc5216e3          	bne	tp,t0,800007c8 <test_22+0x8>

0000000080000800 <test_23>:
    80000800:	01700193          	li	gp,23
    80000804:	00000213          	li	tp,0
    80000808:	00001117          	auipc	sp,0x1
    8000080c:	7f810113          	addi	sp,sp,2040 # 80002000 <begin_signature>
    80000810:	00000013          	nop
    80000814:	00000013          	nop
    80000818:	122330b7          	lui	ra,0x12233
    8000081c:	0010809b          	addiw	ra,ra,1 # 12233001 <_start-0x6ddccfff>
    80000820:	02113423          	sd	ra,40(sp)
    80000824:	02813703          	ld	a4,40(sp)
    80000828:	122333b7          	lui	t2,0x12233
    8000082c:	0013839b          	addiw	t2,t2,1 # 12233001 <_start-0x6ddccfff>
    80000830:	00771a63          	bne	a4,t2,80000844 <fail>
    80000834:	00120213          	addi	tp,tp,1 # 1 <_start-0x7fffffff>
    80000838:	00200293          	li	t0,2
    8000083c:	fc5216e3          	bne	tp,t0,80000808 <test_23+0x8>
    80000840:	02301063          	bne	zero,gp,80000860 <pass>

0000000080000844 <fail>:
    80000844:	0ff0000f          	fence
    80000848:	00018063          	beqz	gp,80000848 <fail+0x4>
    8000084c:	00119193          	slli	gp,gp,0x1
    80000850:	0011e193          	ori	gp,gp,1
    80000854:	05d00893          	li	a7,93
    80000858:	00018513          	mv	a0,gp
    8000085c:	00000073          	ecall

0000000080000860 <pass>:
    80000860:	0ff0000f          	fence
    80000864:	00100193          	li	gp,1
    80000868:	05d00893          	li	a7,93
    8000086c:	00000513          	li	a0,0
    80000870:	00000073          	ecall
    80000874:	c0001073          	unimp
    80000878:	0000                	.2byte	0x0
    8000087a:	0000                	.2byte	0x0

Disassembly of section .data:

0000000080002000 <begin_signature>:
    80002000:	deadbeef          	jal	t4,7ffdd5ea <_start-0x22a16>
    80002004:	deadbeef          	jal	t4,7ffdd5ee <_start-0x22a12>

0000000080002008 <tdat2>:
    80002008:	deadbeef          	jal	t4,7ffdd5f2 <_start-0x22a0e>
    8000200c:	deadbeef          	jal	t4,7ffdd5f6 <_start-0x22a0a>

0000000080002010 <tdat3>:
    80002010:	deadbeef          	jal	t4,7ffdd5fa <_start-0x22a06>
    80002014:	deadbeef          	jal	t4,7ffdd5fe <_start-0x22a02>

0000000080002018 <tdat4>:
    80002018:	deadbeef          	jal	t4,7ffdd602 <_start-0x229fe>
    8000201c:	deadbeef          	jal	t4,7ffdd606 <_start-0x229fa>

0000000080002020 <tdat5>:
    80002020:	deadbeef          	jal	t4,7ffdd60a <_start-0x229f6>
    80002024:	deadbeef          	jal	t4,7ffdd60e <_start-0x229f2>

0000000080002028 <tdat6>:
    80002028:	deadbeef          	jal	t4,7ffdd612 <_start-0x229ee>
    8000202c:	deadbeef          	jal	t4,7ffdd616 <_start-0x229ea>

0000000080002030 <tdat7>:
    80002030:	deadbeef          	jal	t4,7ffdd61a <_start-0x229e6>
    80002034:	deadbeef          	jal	t4,7ffdd61e <_start-0x229e2>

0000000080002038 <tdat8>:
    80002038:	deadbeef          	jal	t4,7ffdd622 <_start-0x229de>
    8000203c:	deadbeef          	jal	t4,7ffdd626 <_start-0x229da>

0000000080002040 <tdat9>:
    80002040:	deadbeef          	jal	t4,7ffdd62a <_start-0x229d6>
    80002044:	deadbeef          	jal	t4,7ffdd62e <_start-0x229d2>

0000000080002048 <tdat10>:
    80002048:	deadbeef          	jal	t4,7ffdd632 <_start-0x229ce>
    8000204c:	deadbeef          	jal	t4,7ffdd636 <_start-0x229ca>
