
rv64ui-p-srl:     file format elf64-littleriscv


Disassembly of section .text.init:

0000000080000000 <_start>:
    80000000:	0500006f          	j	80000050 <reset_vector>

0000000080000004 <trap_vector>:
    80000004:	34202f73          	csrr	t5,mcause
    80000008:	00800f93          	li	t6,8
    8000000c:	03ff0863          	beq	t5,t6,8000003c <write_tohost>
    80000010:	00900f93          	li	t6,9
    80000014:	03ff0463          	beq	t5,t6,8000003c <write_tohost>
    80000018:	00b00f93          	li	t6,11
    8000001c:	03ff0063          	beq	t5,t6,8000003c <write_tohost>
    80000020:	00000f13          	li	t5,0
    80000024:	000f0463          	beqz	t5,8000002c <trap_vector+0x28>
    80000028:	000f0067          	jr	t5
    8000002c:	34202f73          	csrr	t5,mcause
    80000030:	000f5463          	bgez	t5,80000038 <handle_exception>
    80000034:	0040006f          	j	80000038 <handle_exception>

0000000080000038 <handle_exception>:
    80000038:	5391e193          	ori	gp,gp,1337

000000008000003c <write_tohost>:
    8000003c:	00001f17          	auipc	t5,0x1
    80000040:	fc3f2223          	sw	gp,-60(t5) # 80001000 <tohost>
    80000044:	00001f17          	auipc	t5,0x1
    80000048:	fc0f2023          	sw	zero,-64(t5) # 80001004 <tohost+0x4>
    8000004c:	ff1ff06f          	j	8000003c <write_tohost>

0000000080000050 <reset_vector>:
    80000050:	00000093          	li	ra,0
    80000054:	00000113          	li	sp,0
    80000058:	00000193          	li	gp,0
    8000005c:	00000213          	li	tp,0
    80000060:	00000293          	li	t0,0
    80000064:	00000313          	li	t1,0
    80000068:	00000393          	li	t2,0
    8000006c:	00000413          	li	s0,0
    80000070:	00000493          	li	s1,0
    80000074:	00000513          	li	a0,0
    80000078:	00000593          	li	a1,0
    8000007c:	00000613          	li	a2,0
    80000080:	00000693          	li	a3,0
    80000084:	00000713          	li	a4,0
    80000088:	00000793          	li	a5,0
    8000008c:	00000813          	li	a6,0
    80000090:	00000893          	li	a7,0
    80000094:	00000913          	li	s2,0
    80000098:	00000993          	li	s3,0
    8000009c:	00000a13          	li	s4,0
    800000a0:	00000a93          	li	s5,0
    800000a4:	00000b13          	li	s6,0
    800000a8:	00000b93          	li	s7,0
    800000ac:	00000c13          	li	s8,0
    800000b0:	00000c93          	li	s9,0
    800000b4:	00000d13          	li	s10,0
    800000b8:	00000d93          	li	s11,0
    800000bc:	00000e13          	li	t3,0
    800000c0:	00000e93          	li	t4,0
    800000c4:	00000f13          	li	t5,0
    800000c8:	00000f93          	li	t6,0
    800000cc:	f1402573          	csrr	a0,mhartid
    800000d0:	00051063          	bnez	a0,800000d0 <reset_vector+0x80>
    800000d4:	00000297          	auipc	t0,0x0
    800000d8:	01028293          	addi	t0,t0,16 # 800000e4 <reset_vector+0x94>
    800000dc:	30529073          	csrw	mtvec,t0
    800000e0:	18005073          	csrwi	satp,0
    800000e4:	00000297          	auipc	t0,0x0
    800000e8:	02428293          	addi	t0,t0,36 # 80000108 <reset_vector+0xb8>
    800000ec:	30529073          	csrw	mtvec,t0
    800000f0:	0010029b          	addiw	t0,zero,1
    800000f4:	03529293          	slli	t0,t0,0x35
    800000f8:	fff28293          	addi	t0,t0,-1
    800000fc:	3b029073          	csrw	pmpaddr0,t0
    80000100:	01f00293          	li	t0,31
    80000104:	3a029073          	csrw	pmpcfg0,t0
    80000108:	30405073          	csrwi	mie,0
    8000010c:	00000297          	auipc	t0,0x0
    80000110:	01428293          	addi	t0,t0,20 # 80000120 <reset_vector+0xd0>
    80000114:	30529073          	csrw	mtvec,t0
    80000118:	30205073          	csrwi	medeleg,0
    8000011c:	30305073          	csrwi	mideleg,0
    80000120:	00000193          	li	gp,0
    80000124:	00000297          	auipc	t0,0x0
    80000128:	ee028293          	addi	t0,t0,-288 # 80000004 <trap_vector>
    8000012c:	30529073          	csrw	mtvec,t0
    80000130:	00100513          	li	a0,1
    80000134:	01f51513          	slli	a0,a0,0x1f
    80000138:	00055c63          	bgez	a0,80000150 <reset_vector+0x100>
    8000013c:	0ff0000f          	fence
    80000140:	00100193          	li	gp,1
    80000144:	05d00893          	li	a7,93
    80000148:	00000513          	li	a0,0
    8000014c:	00000073          	ecall
    80000150:	00000293          	li	t0,0
    80000154:	00028a63          	beqz	t0,80000168 <reset_vector+0x118>
    80000158:	10529073          	csrw	stvec,t0
    8000015c:	0000b2b7          	lui	t0,0xb
    80000160:	1092829b          	addiw	t0,t0,265 # b109 <_start-0x7fff4ef7>
    80000164:	30229073          	csrw	medeleg,t0
    80000168:	30005073          	csrwi	mstatus,0
    8000016c:	00000297          	auipc	t0,0x0
    80000170:	01428293          	addi	t0,t0,20 # 80000180 <test_2>
    80000174:	34129073          	csrw	mepc,t0
    80000178:	f1402573          	csrr	a0,mhartid
    8000017c:	30200073          	mret

0000000080000180 <test_2>:
    80000180:	00200193          	li	gp,2
    80000184:	800000b7          	lui	ra,0x80000
    80000188:	00000113          	li	sp,0
    8000018c:	0020d733          	srl	a4,ra,sp
    80000190:	800003b7          	lui	t2,0x80000
    80000194:	5e771a63          	bne	a4,t2,80000788 <fail>

0000000080000198 <test_3>:
    80000198:	00300193          	li	gp,3
    8000019c:	800000b7          	lui	ra,0x80000
    800001a0:	00100113          	li	sp,1
    800001a4:	0020d733          	srl	a4,ra,sp
    800001a8:	0010039b          	addiw	t2,zero,1
    800001ac:	02139393          	slli	t2,t2,0x21
    800001b0:	fff38393          	addi	t2,t2,-1 # ffffffff7fffffff <_end+0xfffffffeffffdfff>
    800001b4:	01e39393          	slli	t2,t2,0x1e
    800001b8:	5c771863          	bne	a4,t2,80000788 <fail>

00000000800001bc <test_4>:
    800001bc:	00400193          	li	gp,4
    800001c0:	800000b7          	lui	ra,0x80000
    800001c4:	00700113          	li	sp,7
    800001c8:	0020d733          	srl	a4,ra,sp
    800001cc:	0010039b          	addiw	t2,zero,1
    800001d0:	02139393          	slli	t2,t2,0x21
    800001d4:	fff38393          	addi	t2,t2,-1
    800001d8:	01839393          	slli	t2,t2,0x18
    800001dc:	5a771663          	bne	a4,t2,80000788 <fail>

00000000800001e0 <test_5>:
    800001e0:	00500193          	li	gp,5
    800001e4:	800000b7          	lui	ra,0x80000
    800001e8:	00e00113          	li	sp,14
    800001ec:	0020d733          	srl	a4,ra,sp
    800001f0:	0010039b          	addiw	t2,zero,1
    800001f4:	02139393          	slli	t2,t2,0x21
    800001f8:	fff38393          	addi	t2,t2,-1
    800001fc:	01139393          	slli	t2,t2,0x11
    80000200:	58771463          	bne	a4,t2,80000788 <fail>

0000000080000204 <test_6>:
    80000204:	00600193          	li	gp,6
    80000208:	800000b7          	lui	ra,0x80000
    8000020c:	0010809b          	addiw	ra,ra,1 # ffffffff80000001 <_end+0xfffffffeffffe001>
    80000210:	01f00113          	li	sp,31
    80000214:	0020d733          	srl	a4,ra,sp
    80000218:	0010039b          	addiw	t2,zero,1
    8000021c:	02139393          	slli	t2,t2,0x21
    80000220:	fff38393          	addi	t2,t2,-1
    80000224:	56771263          	bne	a4,t2,80000788 <fail>

0000000080000228 <test_7>:
    80000228:	00700193          	li	gp,7
    8000022c:	fff00093          	li	ra,-1
    80000230:	00000113          	li	sp,0
    80000234:	0020d733          	srl	a4,ra,sp
    80000238:	fff00393          	li	t2,-1
    8000023c:	54771663          	bne	a4,t2,80000788 <fail>

0000000080000240 <test_8>:
    80000240:	00800193          	li	gp,8
    80000244:	fff00093          	li	ra,-1
    80000248:	00100113          	li	sp,1
    8000024c:	0020d733          	srl	a4,ra,sp
    80000250:	fff0039b          	addiw	t2,zero,-1
    80000254:	03f39393          	slli	t2,t2,0x3f
    80000258:	fff38393          	addi	t2,t2,-1
    8000025c:	52771663          	bne	a4,t2,80000788 <fail>

0000000080000260 <test_9>:
    80000260:	00900193          	li	gp,9
    80000264:	fff00093          	li	ra,-1
    80000268:	00700113          	li	sp,7
    8000026c:	0020d733          	srl	a4,ra,sp
    80000270:	0010039b          	addiw	t2,zero,1
    80000274:	03939393          	slli	t2,t2,0x39
    80000278:	fff38393          	addi	t2,t2,-1
    8000027c:	50771663          	bne	a4,t2,80000788 <fail>

0000000080000280 <test_10>:
    80000280:	00a00193          	li	gp,10
    80000284:	fff00093          	li	ra,-1
    80000288:	00e00113          	li	sp,14
    8000028c:	0020d733          	srl	a4,ra,sp
    80000290:	0010039b          	addiw	t2,zero,1
    80000294:	03239393          	slli	t2,t2,0x32
    80000298:	fff38393          	addi	t2,t2,-1
    8000029c:	4e771663          	bne	a4,t2,80000788 <fail>

00000000800002a0 <test_11>:
    800002a0:	00b00193          	li	gp,11
    800002a4:	fff00093          	li	ra,-1
    800002a8:	01f00113          	li	sp,31
    800002ac:	0020d733          	srl	a4,ra,sp
    800002b0:	0010039b          	addiw	t2,zero,1
    800002b4:	02139393          	slli	t2,t2,0x21
    800002b8:	fff38393          	addi	t2,t2,-1
    800002bc:	4c771663          	bne	a4,t2,80000788 <fail>

00000000800002c0 <test_12>:
    800002c0:	00c00193          	li	gp,12
    800002c4:	212120b7          	lui	ra,0x21212
    800002c8:	1210809b          	addiw	ra,ra,289 # 21212121 <_start-0x5edededf>
    800002cc:	00000113          	li	sp,0
    800002d0:	0020d733          	srl	a4,ra,sp
    800002d4:	212123b7          	lui	t2,0x21212
    800002d8:	1213839b          	addiw	t2,t2,289 # 21212121 <_start-0x5edededf>
    800002dc:	4a771663          	bne	a4,t2,80000788 <fail>

00000000800002e0 <test_13>:
    800002e0:	00d00193          	li	gp,13
    800002e4:	212120b7          	lui	ra,0x21212
    800002e8:	1210809b          	addiw	ra,ra,289 # 21212121 <_start-0x5edededf>
    800002ec:	00100113          	li	sp,1
    800002f0:	0020d733          	srl	a4,ra,sp
    800002f4:	109093b7          	lui	t2,0x10909
    800002f8:	0903839b          	addiw	t2,t2,144 # 10909090 <_start-0x6f6f6f70>
    800002fc:	48771663          	bne	a4,t2,80000788 <fail>

0000000080000300 <test_14>:
    80000300:	00e00193          	li	gp,14
    80000304:	212120b7          	lui	ra,0x21212
    80000308:	1210809b          	addiw	ra,ra,289 # 21212121 <_start-0x5edededf>
    8000030c:	00700113          	li	sp,7
    80000310:	0020d733          	srl	a4,ra,sp
    80000314:	004243b7          	lui	t2,0x424
    80000318:	2423839b          	addiw	t2,t2,578 # 424242 <_start-0x7fbdbdbe>
    8000031c:	46771663          	bne	a4,t2,80000788 <fail>

0000000080000320 <test_15>:
    80000320:	00f00193          	li	gp,15
    80000324:	212120b7          	lui	ra,0x21212
    80000328:	1210809b          	addiw	ra,ra,289 # 21212121 <_start-0x5edededf>
    8000032c:	00e00113          	li	sp,14
    80000330:	0020d733          	srl	a4,ra,sp
    80000334:	000083b7          	lui	t2,0x8
    80000338:	4843839b          	addiw	t2,t2,1156 # 8484 <_start-0x7fff7b7c>
    8000033c:	44771663          	bne	a4,t2,80000788 <fail>

0000000080000340 <test_16>:
    80000340:	01000193          	li	gp,16
    80000344:	212120b7          	lui	ra,0x21212
    80000348:	1210809b          	addiw	ra,ra,289 # 21212121 <_start-0x5edededf>
    8000034c:	01f00113          	li	sp,31
    80000350:	0020d733          	srl	a4,ra,sp
    80000354:	00000393          	li	t2,0
    80000358:	42771863          	bne	a4,t2,80000788 <fail>

000000008000035c <test_17>:
    8000035c:	01100193          	li	gp,17
    80000360:	212120b7          	lui	ra,0x21212
    80000364:	1210809b          	addiw	ra,ra,289 # 21212121 <_start-0x5edededf>
    80000368:	fc000113          	li	sp,-64
    8000036c:	0020d733          	srl	a4,ra,sp
    80000370:	212123b7          	lui	t2,0x21212
    80000374:	1213839b          	addiw	t2,t2,289 # 21212121 <_start-0x5edededf>
    80000378:	40771863          	bne	a4,t2,80000788 <fail>

000000008000037c <test_18>:
    8000037c:	01200193          	li	gp,18
    80000380:	212120b7          	lui	ra,0x21212
    80000384:	1210809b          	addiw	ra,ra,289 # 21212121 <_start-0x5edededf>
    80000388:	fc100113          	li	sp,-63
    8000038c:	0020d733          	srl	a4,ra,sp
    80000390:	109093b7          	lui	t2,0x10909
    80000394:	0903839b          	addiw	t2,t2,144 # 10909090 <_start-0x6f6f6f70>
    80000398:	3e771863          	bne	a4,t2,80000788 <fail>

000000008000039c <test_19>:
    8000039c:	01300193          	li	gp,19
    800003a0:	212120b7          	lui	ra,0x21212
    800003a4:	1210809b          	addiw	ra,ra,289 # 21212121 <_start-0x5edededf>
    800003a8:	fc700113          	li	sp,-57
    800003ac:	0020d733          	srl	a4,ra,sp
    800003b0:	004243b7          	lui	t2,0x424
    800003b4:	2423839b          	addiw	t2,t2,578 # 424242 <_start-0x7fbdbdbe>
    800003b8:	3c771863          	bne	a4,t2,80000788 <fail>

00000000800003bc <test_20>:
    800003bc:	01400193          	li	gp,20
    800003c0:	212120b7          	lui	ra,0x21212
    800003c4:	1210809b          	addiw	ra,ra,289 # 21212121 <_start-0x5edededf>
    800003c8:	fce00113          	li	sp,-50
    800003cc:	0020d733          	srl	a4,ra,sp
    800003d0:	000083b7          	lui	t2,0x8
    800003d4:	4843839b          	addiw	t2,t2,1156 # 8484 <_start-0x7fff7b7c>
    800003d8:	3a771863          	bne	a4,t2,80000788 <fail>

00000000800003dc <test_21>:
    800003dc:	01500193          	li	gp,21
    800003e0:	212120b7          	lui	ra,0x21212
    800003e4:	1210809b          	addiw	ra,ra,289 # 21212121 <_start-0x5edededf>
    800003e8:	fff00113          	li	sp,-1
    800003ec:	0020d733          	srl	a4,ra,sp
    800003f0:	00000393          	li	t2,0
    800003f4:	38771a63          	bne	a4,t2,80000788 <fail>

00000000800003f8 <test_22>:
    800003f8:	01600193          	li	gp,22
    800003fc:	0010009b          	addiw	ra,zero,1
    80000400:	01f09093          	slli	ra,ra,0x1f
    80000404:	00700113          	li	sp,7
    80000408:	0020d0b3          	srl	ra,ra,sp
    8000040c:	010003b7          	lui	t2,0x1000
    80000410:	36709c63          	bne	ra,t2,80000788 <fail>

0000000080000414 <test_23>:
    80000414:	01700193          	li	gp,23
    80000418:	0010009b          	addiw	ra,zero,1
    8000041c:	01f09093          	slli	ra,ra,0x1f
    80000420:	00e00113          	li	sp,14
    80000424:	0020d133          	srl	sp,ra,sp
    80000428:	000203b7          	lui	t2,0x20
    8000042c:	34711e63          	bne	sp,t2,80000788 <fail>

0000000080000430 <test_24>:
    80000430:	01800193          	li	gp,24
    80000434:	00700093          	li	ra,7
    80000438:	0010d0b3          	srl	ra,ra,ra
    8000043c:	00000393          	li	t2,0
    80000440:	34709463          	bne	ra,t2,80000788 <fail>

0000000080000444 <test_25>:
    80000444:	01900193          	li	gp,25
    80000448:	00000213          	li	tp,0
    8000044c:	0010009b          	addiw	ra,zero,1
    80000450:	01f09093          	slli	ra,ra,0x1f
    80000454:	00700113          	li	sp,7
    80000458:	0020d733          	srl	a4,ra,sp
    8000045c:	00070313          	mv	t1,a4
    80000460:	00120213          	addi	tp,tp,1 # 1 <_start-0x7fffffff>
    80000464:	00200293          	li	t0,2
    80000468:	fe5212e3          	bne	tp,t0,8000044c <test_25+0x8>
    8000046c:	010003b7          	lui	t2,0x1000
    80000470:	30731c63          	bne	t1,t2,80000788 <fail>

0000000080000474 <test_26>:
    80000474:	01a00193          	li	gp,26
    80000478:	00000213          	li	tp,0
    8000047c:	0010009b          	addiw	ra,zero,1
    80000480:	01f09093          	slli	ra,ra,0x1f
    80000484:	00e00113          	li	sp,14
    80000488:	0020d733          	srl	a4,ra,sp
    8000048c:	00000013          	nop
    80000490:	00070313          	mv	t1,a4
    80000494:	00120213          	addi	tp,tp,1 # 1 <_start-0x7fffffff>
    80000498:	00200293          	li	t0,2
    8000049c:	fe5210e3          	bne	tp,t0,8000047c <test_26+0x8>
    800004a0:	000203b7          	lui	t2,0x20
    800004a4:	2e731263          	bne	t1,t2,80000788 <fail>

00000000800004a8 <test_27>:
    800004a8:	01b00193          	li	gp,27
    800004ac:	00000213          	li	tp,0
    800004b0:	0010009b          	addiw	ra,zero,1
    800004b4:	01f09093          	slli	ra,ra,0x1f
    800004b8:	01f00113          	li	sp,31
    800004bc:	0020d733          	srl	a4,ra,sp
    800004c0:	00000013          	nop
    800004c4:	00000013          	nop
    800004c8:	00070313          	mv	t1,a4
    800004cc:	00120213          	addi	tp,tp,1 # 1 <_start-0x7fffffff>
    800004d0:	00200293          	li	t0,2
    800004d4:	fc521ee3          	bne	tp,t0,800004b0 <test_27+0x8>
    800004d8:	00100393          	li	t2,1
    800004dc:	2a731663          	bne	t1,t2,80000788 <fail>

00000000800004e0 <test_28>:
    800004e0:	01c00193          	li	gp,28
    800004e4:	00000213          	li	tp,0
    800004e8:	0010009b          	addiw	ra,zero,1
    800004ec:	01f09093          	slli	ra,ra,0x1f
    800004f0:	00700113          	li	sp,7
    800004f4:	0020d733          	srl	a4,ra,sp
    800004f8:	00120213          	addi	tp,tp,1 # 1 <_start-0x7fffffff>
    800004fc:	00200293          	li	t0,2
    80000500:	fe5214e3          	bne	tp,t0,800004e8 <test_28+0x8>
    80000504:	010003b7          	lui	t2,0x1000
    80000508:	28771063          	bne	a4,t2,80000788 <fail>

000000008000050c <test_29>:
    8000050c:	01d00193          	li	gp,29
    80000510:	00000213          	li	tp,0
    80000514:	0010009b          	addiw	ra,zero,1
    80000518:	01f09093          	slli	ra,ra,0x1f
    8000051c:	00e00113          	li	sp,14
    80000520:	00000013          	nop
    80000524:	0020d733          	srl	a4,ra,sp
    80000528:	00120213          	addi	tp,tp,1 # 1 <_start-0x7fffffff>
    8000052c:	00200293          	li	t0,2
    80000530:	fe5212e3          	bne	tp,t0,80000514 <test_29+0x8>
    80000534:	000203b7          	lui	t2,0x20
    80000538:	24771863          	bne	a4,t2,80000788 <fail>

000000008000053c <test_30>:
    8000053c:	01e00193          	li	gp,30
    80000540:	00000213          	li	tp,0
    80000544:	0010009b          	addiw	ra,zero,1
    80000548:	01f09093          	slli	ra,ra,0x1f
    8000054c:	01f00113          	li	sp,31
    80000550:	00000013          	nop
    80000554:	00000013          	nop
    80000558:	0020d733          	srl	a4,ra,sp
    8000055c:	00120213          	addi	tp,tp,1 # 1 <_start-0x7fffffff>
    80000560:	00200293          	li	t0,2
    80000564:	fe5210e3          	bne	tp,t0,80000544 <test_30+0x8>
    80000568:	00100393          	li	t2,1
    8000056c:	20771e63          	bne	a4,t2,80000788 <fail>

0000000080000570 <test_31>:
    80000570:	01f00193          	li	gp,31
    80000574:	00000213          	li	tp,0
    80000578:	0010009b          	addiw	ra,zero,1
    8000057c:	01f09093          	slli	ra,ra,0x1f
    80000580:	00000013          	nop
    80000584:	00700113          	li	sp,7
    80000588:	0020d733          	srl	a4,ra,sp
    8000058c:	00120213          	addi	tp,tp,1 # 1 <_start-0x7fffffff>
    80000590:	00200293          	li	t0,2
    80000594:	fe5212e3          	bne	tp,t0,80000578 <test_31+0x8>
    80000598:	010003b7          	lui	t2,0x1000
    8000059c:	1e771663          	bne	a4,t2,80000788 <fail>

00000000800005a0 <test_32>:
    800005a0:	02000193          	li	gp,32
    800005a4:	00000213          	li	tp,0
    800005a8:	0010009b          	addiw	ra,zero,1
    800005ac:	01f09093          	slli	ra,ra,0x1f
    800005b0:	00000013          	nop
    800005b4:	00e00113          	li	sp,14
    800005b8:	00000013          	nop
    800005bc:	0020d733          	srl	a4,ra,sp
    800005c0:	00120213          	addi	tp,tp,1 # 1 <_start-0x7fffffff>
    800005c4:	00200293          	li	t0,2
    800005c8:	fe5210e3          	bne	tp,t0,800005a8 <test_32+0x8>
    800005cc:	000203b7          	lui	t2,0x20
    800005d0:	1a771c63          	bne	a4,t2,80000788 <fail>

00000000800005d4 <test_33>:
    800005d4:	02100193          	li	gp,33
    800005d8:	00000213          	li	tp,0
    800005dc:	0010009b          	addiw	ra,zero,1
    800005e0:	01f09093          	slli	ra,ra,0x1f
    800005e4:	00000013          	nop
    800005e8:	00000013          	nop
    800005ec:	01f00113          	li	sp,31
    800005f0:	0020d733          	srl	a4,ra,sp
    800005f4:	00120213          	addi	tp,tp,1 # 1 <_start-0x7fffffff>
    800005f8:	00200293          	li	t0,2
    800005fc:	fe5210e3          	bne	tp,t0,800005dc <test_33+0x8>
    80000600:	00100393          	li	t2,1
    80000604:	18771263          	bne	a4,t2,80000788 <fail>

0000000080000608 <test_34>:
    80000608:	02200193          	li	gp,34
    8000060c:	00000213          	li	tp,0
    80000610:	00700113          	li	sp,7
    80000614:	0010009b          	addiw	ra,zero,1
    80000618:	01f09093          	slli	ra,ra,0x1f
    8000061c:	0020d733          	srl	a4,ra,sp
    80000620:	00120213          	addi	tp,tp,1 # 1 <_start-0x7fffffff>
    80000624:	00200293          	li	t0,2
    80000628:	fe5214e3          	bne	tp,t0,80000610 <test_34+0x8>
    8000062c:	010003b7          	lui	t2,0x1000
    80000630:	14771c63          	bne	a4,t2,80000788 <fail>

0000000080000634 <test_35>:
    80000634:	02300193          	li	gp,35
    80000638:	00000213          	li	tp,0
    8000063c:	00e00113          	li	sp,14
    80000640:	0010009b          	addiw	ra,zero,1
    80000644:	01f09093          	slli	ra,ra,0x1f
    80000648:	00000013          	nop
    8000064c:	0020d733          	srl	a4,ra,sp
    80000650:	00120213          	addi	tp,tp,1 # 1 <_start-0x7fffffff>
    80000654:	00200293          	li	t0,2
    80000658:	fe5212e3          	bne	tp,t0,8000063c <test_35+0x8>
    8000065c:	000203b7          	lui	t2,0x20
    80000660:	12771463          	bne	a4,t2,80000788 <fail>

0000000080000664 <test_36>:
    80000664:	02400193          	li	gp,36
    80000668:	00000213          	li	tp,0
    8000066c:	01f00113          	li	sp,31
    80000670:	0010009b          	addiw	ra,zero,1
    80000674:	01f09093          	slli	ra,ra,0x1f
    80000678:	00000013          	nop
    8000067c:	00000013          	nop
    80000680:	0020d733          	srl	a4,ra,sp
    80000684:	00120213          	addi	tp,tp,1 # 1 <_start-0x7fffffff>
    80000688:	00200293          	li	t0,2
    8000068c:	fe5210e3          	bne	tp,t0,8000066c <test_36+0x8>
    80000690:	00100393          	li	t2,1
    80000694:	0e771a63          	bne	a4,t2,80000788 <fail>

0000000080000698 <test_37>:
    80000698:	02500193          	li	gp,37
    8000069c:	00000213          	li	tp,0
    800006a0:	00700113          	li	sp,7
    800006a4:	00000013          	nop
    800006a8:	0010009b          	addiw	ra,zero,1
    800006ac:	01f09093          	slli	ra,ra,0x1f
    800006b0:	0020d733          	srl	a4,ra,sp
    800006b4:	00120213          	addi	tp,tp,1 # 1 <_start-0x7fffffff>
    800006b8:	00200293          	li	t0,2
    800006bc:	fe5212e3          	bne	tp,t0,800006a0 <test_37+0x8>
    800006c0:	010003b7          	lui	t2,0x1000
    800006c4:	0c771263          	bne	a4,t2,80000788 <fail>

00000000800006c8 <test_38>:
    800006c8:	02600193          	li	gp,38
    800006cc:	00000213          	li	tp,0
    800006d0:	00e00113          	li	sp,14
    800006d4:	00000013          	nop
    800006d8:	0010009b          	addiw	ra,zero,1
    800006dc:	01f09093          	slli	ra,ra,0x1f
    800006e0:	00000013          	nop
    800006e4:	0020d733          	srl	a4,ra,sp
    800006e8:	00120213          	addi	tp,tp,1 # 1 <_start-0x7fffffff>
    800006ec:	00200293          	li	t0,2
    800006f0:	fe5210e3          	bne	tp,t0,800006d0 <test_38+0x8>
    800006f4:	000203b7          	lui	t2,0x20
    800006f8:	08771863          	bne	a4,t2,80000788 <fail>

00000000800006fc <test_39>:
    800006fc:	02700193          	li	gp,39
    80000700:	00000213          	li	tp,0
    80000704:	01f00113          	li	sp,31
    80000708:	00000013          	nop
    8000070c:	00000013          	nop
    80000710:	0010009b          	addiw	ra,zero,1
    80000714:	01f09093          	slli	ra,ra,0x1f
    80000718:	0020d733          	srl	a4,ra,sp
    8000071c:	00120213          	addi	tp,tp,1 # 1 <_start-0x7fffffff>
    80000720:	00200293          	li	t0,2
    80000724:	fe5210e3          	bne	tp,t0,80000704 <test_39+0x8>
    80000728:	00100393          	li	t2,1
    8000072c:	04771e63          	bne	a4,t2,80000788 <fail>

0000000080000730 <test_40>:
    80000730:	02800193          	li	gp,40
    80000734:	00f00093          	li	ra,15
    80000738:	00105133          	srl	sp,zero,ra
    8000073c:	00000393          	li	t2,0
    80000740:	04711463          	bne	sp,t2,80000788 <fail>

0000000080000744 <test_41>:
    80000744:	02900193          	li	gp,41
    80000748:	02000093          	li	ra,32
    8000074c:	0000d133          	srl	sp,ra,zero
    80000750:	02000393          	li	t2,32
    80000754:	02711a63          	bne	sp,t2,80000788 <fail>

0000000080000758 <test_42>:
    80000758:	02a00193          	li	gp,42
    8000075c:	000050b3          	srl	ra,zero,zero
    80000760:	00000393          	li	t2,0
    80000764:	02709263          	bne	ra,t2,80000788 <fail>

0000000080000768 <test_43>:
    80000768:	02b00193          	li	gp,43
    8000076c:	40000093          	li	ra,1024
    80000770:	00001137          	lui	sp,0x1
    80000774:	8001011b          	addiw	sp,sp,-2048 # 800 <_start-0x7ffff800>
    80000778:	0020d033          	srl	zero,ra,sp
    8000077c:	00000393          	li	t2,0
    80000780:	00701463          	bne	zero,t2,80000788 <fail>
    80000784:	02301063          	bne	zero,gp,800007a4 <pass>

0000000080000788 <fail>:
    80000788:	0ff0000f          	fence
    8000078c:	00018063          	beqz	gp,8000078c <fail+0x4>
    80000790:	00119193          	slli	gp,gp,0x1
    80000794:	0011e193          	ori	gp,gp,1
    80000798:	05d00893          	li	a7,93
    8000079c:	00018513          	mv	a0,gp
    800007a0:	00000073          	ecall

00000000800007a4 <pass>:
    800007a4:	0ff0000f          	fence
    800007a8:	00100193          	li	gp,1
    800007ac:	05d00893          	li	a7,93
    800007b0:	00000513          	li	a0,0
    800007b4:	00000073          	ecall
    800007b8:	c0001073          	unimp
