
rv64um-p-mul:     file format elf64-littleriscv


Disassembly of section .text.init:

0000000080000000 <_start>:
    80000000:	0500006f          	j	80000050 <reset_vector>

0000000080000004 <trap_vector>:
    80000004:	34202f73          	csrr	t5,mcause
    80000008:	00800f93          	li	t6,8
    8000000c:	03ff0863          	beq	t5,t6,8000003c <write_tohost>
    80000010:	00900f93          	li	t6,9
    80000014:	03ff0463          	beq	t5,t6,8000003c <write_tohost>
    80000018:	00b00f93          	li	t6,11
    8000001c:	03ff0063          	beq	t5,t6,8000003c <write_tohost>
    80000020:	00000f13          	li	t5,0
    80000024:	000f0463          	beqz	t5,8000002c <trap_vector+0x28>
    80000028:	000f0067          	jr	t5
    8000002c:	34202f73          	csrr	t5,mcause
    80000030:	000f5463          	bgez	t5,80000038 <handle_exception>
    80000034:	0040006f          	j	80000038 <handle_exception>

0000000080000038 <handle_exception>:
    80000038:	5391e193          	ori	gp,gp,1337

000000008000003c <write_tohost>:
    8000003c:	00001f17          	auipc	t5,0x1
    80000040:	fc3f2223          	sw	gp,-60(t5) # 80001000 <tohost>
    80000044:	00001f17          	auipc	t5,0x1
    80000048:	fc0f2023          	sw	zero,-64(t5) # 80001004 <tohost+0x4>
    8000004c:	ff1ff06f          	j	8000003c <write_tohost>

0000000080000050 <reset_vector>:
    80000050:	00000093          	li	ra,0
    80000054:	00000113          	li	sp,0
    80000058:	00000193          	li	gp,0
    8000005c:	00000213          	li	tp,0
    80000060:	00000293          	li	t0,0
    80000064:	00000313          	li	t1,0
    80000068:	00000393          	li	t2,0
    8000006c:	00000413          	li	s0,0
    80000070:	00000493          	li	s1,0
    80000074:	00000513          	li	a0,0
    80000078:	00000593          	li	a1,0
    8000007c:	00000613          	li	a2,0
    80000080:	00000693          	li	a3,0
    80000084:	00000713          	li	a4,0
    80000088:	00000793          	li	a5,0
    8000008c:	00000813          	li	a6,0
    80000090:	00000893          	li	a7,0
    80000094:	00000913          	li	s2,0
    80000098:	00000993          	li	s3,0
    8000009c:	00000a13          	li	s4,0
    800000a0:	00000a93          	li	s5,0
    800000a4:	00000b13          	li	s6,0
    800000a8:	00000b93          	li	s7,0
    800000ac:	00000c13          	li	s8,0
    800000b0:	00000c93          	li	s9,0
    800000b4:	00000d13          	li	s10,0
    800000b8:	00000d93          	li	s11,0
    800000bc:	00000e13          	li	t3,0
    800000c0:	00000e93          	li	t4,0
    800000c4:	00000f13          	li	t5,0
    800000c8:	00000f93          	li	t6,0
    800000cc:	f1402573          	csrr	a0,mhartid
    800000d0:	00051063          	bnez	a0,800000d0 <reset_vector+0x80>
    800000d4:	00000297          	auipc	t0,0x0
    800000d8:	01028293          	addi	t0,t0,16 # 800000e4 <reset_vector+0x94>
    800000dc:	30529073          	csrw	mtvec,t0
    800000e0:	18005073          	csrwi	satp,0
    800000e4:	00000297          	auipc	t0,0x0
    800000e8:	02428293          	addi	t0,t0,36 # 80000108 <reset_vector+0xb8>
    800000ec:	30529073          	csrw	mtvec,t0
    800000f0:	0010029b          	addiw	t0,zero,1
    800000f4:	03529293          	slli	t0,t0,0x35
    800000f8:	fff28293          	addi	t0,t0,-1
    800000fc:	3b029073          	csrw	pmpaddr0,t0
    80000100:	01f00293          	li	t0,31
    80000104:	3a029073          	csrw	pmpcfg0,t0
    80000108:	30405073          	csrwi	mie,0
    8000010c:	00000297          	auipc	t0,0x0
    80000110:	01428293          	addi	t0,t0,20 # 80000120 <reset_vector+0xd0>
    80000114:	30529073          	csrw	mtvec,t0
    80000118:	30205073          	csrwi	medeleg,0
    8000011c:	30305073          	csrwi	mideleg,0
    80000120:	00000193          	li	gp,0
    80000124:	00000297          	auipc	t0,0x0
    80000128:	ee028293          	addi	t0,t0,-288 # 80000004 <trap_vector>
    8000012c:	30529073          	csrw	mtvec,t0
    80000130:	00100513          	li	a0,1
    80000134:	01f51513          	slli	a0,a0,0x1f
    80000138:	00055c63          	bgez	a0,80000150 <reset_vector+0x100>
    8000013c:	0ff0000f          	fence
    80000140:	00100193          	li	gp,1
    80000144:	05d00893          	li	a7,93
    80000148:	00000513          	li	a0,0
    8000014c:	00000073          	ecall
    80000150:	00000293          	li	t0,0
    80000154:	00028a63          	beqz	t0,80000168 <reset_vector+0x118>
    80000158:	10529073          	csrw	stvec,t0
    8000015c:	0000b2b7          	lui	t0,0xb
    80000160:	1092829b          	addiw	t0,t0,265 # b109 <_start-0x7fff4ef7>
    80000164:	30229073          	csrw	medeleg,t0
    80000168:	30005073          	csrwi	mstatus,0
    8000016c:	00000297          	auipc	t0,0x0
    80000170:	01428293          	addi	t0,t0,20 # 80000180 <test_32>
    80000174:	34129073          	csrw	mepc,t0
    80000178:	f1402573          	csrr	a0,mhartid
    8000017c:	30200073          	mret

0000000080000180 <test_32>:
    80000180:	02000193          	li	gp,32
    80000184:	000080b7          	lui	ra,0x8
    80000188:	e000809b          	addiw	ra,ra,-512 # 7e00 <_start-0x7fff8200>
    8000018c:	06db7137          	lui	sp,0x6db7
    80000190:	db71011b          	addiw	sp,sp,-585 # 6db6db7 <_start-0x79249249>
    80000194:	00c11113          	slli	sp,sp,0xc
    80000198:	db710113          	addi	sp,sp,-585
    8000019c:	00c11113          	slli	sp,sp,0xc
    800001a0:	db710113          	addi	sp,sp,-585
    800001a4:	00c11113          	slli	sp,sp,0xc
    800001a8:	db710113          	addi	sp,sp,-585
    800001ac:	02208733          	mul	a4,ra,sp
    800001b0:	000013b7          	lui	t2,0x1
    800001b4:	2003839b          	addiw	t2,t2,512 # 1200 <_start-0x7fffee00>
    800001b8:	48771a63          	bne	a4,t2,8000064c <fail>

00000000800001bc <test_33>:
    800001bc:	02100193          	li	gp,33
    800001c0:	000080b7          	lui	ra,0x8
    800001c4:	fc00809b          	addiw	ra,ra,-64 # 7fc0 <_start-0x7fff8040>
    800001c8:	06db7137          	lui	sp,0x6db7
    800001cc:	db71011b          	addiw	sp,sp,-585 # 6db6db7 <_start-0x79249249>
    800001d0:	00c11113          	slli	sp,sp,0xc
    800001d4:	db710113          	addi	sp,sp,-585
    800001d8:	00c11113          	slli	sp,sp,0xc
    800001dc:	db710113          	addi	sp,sp,-585
    800001e0:	00c11113          	slli	sp,sp,0xc
    800001e4:	db710113          	addi	sp,sp,-585
    800001e8:	02208733          	mul	a4,ra,sp
    800001ec:	000013b7          	lui	t2,0x1
    800001f0:	2403839b          	addiw	t2,t2,576 # 1240 <_start-0x7fffedc0>
    800001f4:	44771c63          	bne	a4,t2,8000064c <fail>

00000000800001f8 <test_2>:
    800001f8:	00200193          	li	gp,2
    800001fc:	00000093          	li	ra,0
    80000200:	00000113          	li	sp,0
    80000204:	02208733          	mul	a4,ra,sp
    80000208:	00000393          	li	t2,0
    8000020c:	44771063          	bne	a4,t2,8000064c <fail>

0000000080000210 <test_3>:
    80000210:	00300193          	li	gp,3
    80000214:	00100093          	li	ra,1
    80000218:	00100113          	li	sp,1
    8000021c:	02208733          	mul	a4,ra,sp
    80000220:	00100393          	li	t2,1
    80000224:	42771463          	bne	a4,t2,8000064c <fail>

0000000080000228 <test_4>:
    80000228:	00400193          	li	gp,4
    8000022c:	00300093          	li	ra,3
    80000230:	00700113          	li	sp,7
    80000234:	02208733          	mul	a4,ra,sp
    80000238:	01500393          	li	t2,21
    8000023c:	40771863          	bne	a4,t2,8000064c <fail>

0000000080000240 <test_5>:
    80000240:	00500193          	li	gp,5
    80000244:	00000093          	li	ra,0
    80000248:	ffff8137          	lui	sp,0xffff8
    8000024c:	02208733          	mul	a4,ra,sp
    80000250:	00000393          	li	t2,0
    80000254:	3e771c63          	bne	a4,t2,8000064c <fail>

0000000080000258 <test_6>:
    80000258:	00600193          	li	gp,6
    8000025c:	800000b7          	lui	ra,0x80000
    80000260:	00000113          	li	sp,0
    80000264:	02208733          	mul	a4,ra,sp
    80000268:	00000393          	li	t2,0
    8000026c:	3e771063          	bne	a4,t2,8000064c <fail>

0000000080000270 <test_7>:
    80000270:	00700193          	li	gp,7
    80000274:	800000b7          	lui	ra,0x80000
    80000278:	ffff8137          	lui	sp,0xffff8
    8000027c:	02208733          	mul	a4,ra,sp
    80000280:	0010039b          	addiw	t2,zero,1
    80000284:	02e39393          	slli	t2,t2,0x2e
    80000288:	3c771263          	bne	a4,t2,8000064c <fail>

000000008000028c <test_30>:
    8000028c:	01e00193          	li	gp,30
    80000290:	faaab0b7          	lui	ra,0xfaaab
    80000294:	aab0809b          	addiw	ra,ra,-1365 # fffffffffaaaaaab <_end+0xffffffff7aaa8aab>
    80000298:	00c09093          	slli	ra,ra,0xc
    8000029c:	aab08093          	addi	ra,ra,-1365
    800002a0:	00c09093          	slli	ra,ra,0xc
    800002a4:	aab08093          	addi	ra,ra,-1365
    800002a8:	00c09093          	slli	ra,ra,0xc
    800002ac:	aab08093          	addi	ra,ra,-1365
    800002b0:	00030137          	lui	sp,0x30
    800002b4:	e7d1011b          	addiw	sp,sp,-387 # 2fe7d <_start-0x7ffd0183>
    800002b8:	02208733          	mul	a4,ra,sp
    800002bc:	000103b7          	lui	t2,0x10
    800002c0:	f7f3839b          	addiw	t2,t2,-129 # ff7f <_start-0x7fff0081>
    800002c4:	38771463          	bne	a4,t2,8000064c <fail>

00000000800002c8 <test_31>:
    800002c8:	01f00193          	li	gp,31
    800002cc:	000300b7          	lui	ra,0x30
    800002d0:	e7d0809b          	addiw	ra,ra,-387 # 2fe7d <_start-0x7ffd0183>
    800002d4:	faaab137          	lui	sp,0xfaaab
    800002d8:	aab1011b          	addiw	sp,sp,-1365 # fffffffffaaaaaab <_end+0xffffffff7aaa8aab>
    800002dc:	00c11113          	slli	sp,sp,0xc
    800002e0:	aab10113          	addi	sp,sp,-1365
    800002e4:	00c11113          	slli	sp,sp,0xc
    800002e8:	aab10113          	addi	sp,sp,-1365
    800002ec:	00c11113          	slli	sp,sp,0xc
    800002f0:	aab10113          	addi	sp,sp,-1365
    800002f4:	02208733          	mul	a4,ra,sp
    800002f8:	000103b7          	lui	t2,0x10
    800002fc:	f7f3839b          	addiw	t2,t2,-129 # ff7f <_start-0x7fff0081>
    80000300:	34771663          	bne	a4,t2,8000064c <fail>

0000000080000304 <test_8>:
    80000304:	00800193          	li	gp,8
    80000308:	00d00093          	li	ra,13
    8000030c:	00b00113          	li	sp,11
    80000310:	022080b3          	mul	ra,ra,sp
    80000314:	08f00393          	li	t2,143
    80000318:	32709a63          	bne	ra,t2,8000064c <fail>

000000008000031c <test_9>:
    8000031c:	00900193          	li	gp,9
    80000320:	00e00093          	li	ra,14
    80000324:	00b00113          	li	sp,11
    80000328:	02208133          	mul	sp,ra,sp
    8000032c:	09a00393          	li	t2,154
    80000330:	30711e63          	bne	sp,t2,8000064c <fail>

0000000080000334 <test_10>:
    80000334:	00a00193          	li	gp,10
    80000338:	00d00093          	li	ra,13
    8000033c:	021080b3          	mul	ra,ra,ra
    80000340:	0a900393          	li	t2,169
    80000344:	30709463          	bne	ra,t2,8000064c <fail>

0000000080000348 <test_11>:
    80000348:	00b00193          	li	gp,11
    8000034c:	00000213          	li	tp,0
    80000350:	00d00093          	li	ra,13
    80000354:	00b00113          	li	sp,11
    80000358:	02208733          	mul	a4,ra,sp
    8000035c:	00070313          	mv	t1,a4
    80000360:	00120213          	addi	tp,tp,1 # 1 <_start-0x7fffffff>
    80000364:	00200293          	li	t0,2
    80000368:	fe5214e3          	bne	tp,t0,80000350 <test_11+0x8>
    8000036c:	08f00393          	li	t2,143
    80000370:	2c731e63          	bne	t1,t2,8000064c <fail>

0000000080000374 <test_12>:
    80000374:	00c00193          	li	gp,12
    80000378:	00000213          	li	tp,0
    8000037c:	00e00093          	li	ra,14
    80000380:	00b00113          	li	sp,11
    80000384:	02208733          	mul	a4,ra,sp
    80000388:	00000013          	nop
    8000038c:	00070313          	mv	t1,a4
    80000390:	00120213          	addi	tp,tp,1 # 1 <_start-0x7fffffff>
    80000394:	00200293          	li	t0,2
    80000398:	fe5212e3          	bne	tp,t0,8000037c <test_12+0x8>
    8000039c:	09a00393          	li	t2,154
    800003a0:	2a731663          	bne	t1,t2,8000064c <fail>

00000000800003a4 <test_13>:
    800003a4:	00d00193          	li	gp,13
    800003a8:	00000213          	li	tp,0
    800003ac:	00f00093          	li	ra,15
    800003b0:	00b00113          	li	sp,11
    800003b4:	02208733          	mul	a4,ra,sp
    800003b8:	00000013          	nop
    800003bc:	00000013          	nop
    800003c0:	00070313          	mv	t1,a4
    800003c4:	00120213          	addi	tp,tp,1 # 1 <_start-0x7fffffff>
    800003c8:	00200293          	li	t0,2
    800003cc:	fe5210e3          	bne	tp,t0,800003ac <test_13+0x8>
    800003d0:	0a500393          	li	t2,165
    800003d4:	26731c63          	bne	t1,t2,8000064c <fail>

00000000800003d8 <test_14>:
    800003d8:	00e00193          	li	gp,14
    800003dc:	00000213          	li	tp,0
    800003e0:	00d00093          	li	ra,13
    800003e4:	00b00113          	li	sp,11
    800003e8:	02208733          	mul	a4,ra,sp
    800003ec:	00120213          	addi	tp,tp,1 # 1 <_start-0x7fffffff>
    800003f0:	00200293          	li	t0,2
    800003f4:	fe5216e3          	bne	tp,t0,800003e0 <test_14+0x8>
    800003f8:	08f00393          	li	t2,143
    800003fc:	24771863          	bne	a4,t2,8000064c <fail>

0000000080000400 <test_15>:
    80000400:	00f00193          	li	gp,15
    80000404:	00000213          	li	tp,0
    80000408:	00e00093          	li	ra,14
    8000040c:	00b00113          	li	sp,11
    80000410:	00000013          	nop
    80000414:	02208733          	mul	a4,ra,sp
    80000418:	00120213          	addi	tp,tp,1 # 1 <_start-0x7fffffff>
    8000041c:	00200293          	li	t0,2
    80000420:	fe5214e3          	bne	tp,t0,80000408 <test_15+0x8>
    80000424:	09a00393          	li	t2,154
    80000428:	22771263          	bne	a4,t2,8000064c <fail>

000000008000042c <test_16>:
    8000042c:	01000193          	li	gp,16
    80000430:	00000213          	li	tp,0
    80000434:	00f00093          	li	ra,15
    80000438:	00b00113          	li	sp,11
    8000043c:	00000013          	nop
    80000440:	00000013          	nop
    80000444:	02208733          	mul	a4,ra,sp
    80000448:	00120213          	addi	tp,tp,1 # 1 <_start-0x7fffffff>
    8000044c:	00200293          	li	t0,2
    80000450:	fe5212e3          	bne	tp,t0,80000434 <test_16+0x8>
    80000454:	0a500393          	li	t2,165
    80000458:	1e771a63          	bne	a4,t2,8000064c <fail>

000000008000045c <test_17>:
    8000045c:	01100193          	li	gp,17
    80000460:	00000213          	li	tp,0
    80000464:	00d00093          	li	ra,13
    80000468:	00000013          	nop
    8000046c:	00b00113          	li	sp,11
    80000470:	02208733          	mul	a4,ra,sp
    80000474:	00120213          	addi	tp,tp,1 # 1 <_start-0x7fffffff>
    80000478:	00200293          	li	t0,2
    8000047c:	fe5214e3          	bne	tp,t0,80000464 <test_17+0x8>
    80000480:	08f00393          	li	t2,143
    80000484:	1c771463          	bne	a4,t2,8000064c <fail>

0000000080000488 <test_18>:
    80000488:	01200193          	li	gp,18
    8000048c:	00000213          	li	tp,0
    80000490:	00e00093          	li	ra,14
    80000494:	00000013          	nop
    80000498:	00b00113          	li	sp,11
    8000049c:	00000013          	nop
    800004a0:	02208733          	mul	a4,ra,sp
    800004a4:	00120213          	addi	tp,tp,1 # 1 <_start-0x7fffffff>
    800004a8:	00200293          	li	t0,2
    800004ac:	fe5212e3          	bne	tp,t0,80000490 <test_18+0x8>
    800004b0:	09a00393          	li	t2,154
    800004b4:	18771c63          	bne	a4,t2,8000064c <fail>

00000000800004b8 <test_19>:
    800004b8:	01300193          	li	gp,19
    800004bc:	00000213          	li	tp,0
    800004c0:	00f00093          	li	ra,15
    800004c4:	00000013          	nop
    800004c8:	00000013          	nop
    800004cc:	00b00113          	li	sp,11
    800004d0:	02208733          	mul	a4,ra,sp
    800004d4:	00120213          	addi	tp,tp,1 # 1 <_start-0x7fffffff>
    800004d8:	00200293          	li	t0,2
    800004dc:	fe5212e3          	bne	tp,t0,800004c0 <test_19+0x8>
    800004e0:	0a500393          	li	t2,165
    800004e4:	16771463          	bne	a4,t2,8000064c <fail>

00000000800004e8 <test_20>:
    800004e8:	01400193          	li	gp,20
    800004ec:	00000213          	li	tp,0
    800004f0:	00b00113          	li	sp,11
    800004f4:	00d00093          	li	ra,13
    800004f8:	02208733          	mul	a4,ra,sp
    800004fc:	00120213          	addi	tp,tp,1 # 1 <_start-0x7fffffff>
    80000500:	00200293          	li	t0,2
    80000504:	fe5216e3          	bne	tp,t0,800004f0 <test_20+0x8>
    80000508:	08f00393          	li	t2,143
    8000050c:	14771063          	bne	a4,t2,8000064c <fail>

0000000080000510 <test_21>:
    80000510:	01500193          	li	gp,21
    80000514:	00000213          	li	tp,0
    80000518:	00b00113          	li	sp,11
    8000051c:	00e00093          	li	ra,14
    80000520:	00000013          	nop
    80000524:	02208733          	mul	a4,ra,sp
    80000528:	00120213          	addi	tp,tp,1 # 1 <_start-0x7fffffff>
    8000052c:	00200293          	li	t0,2
    80000530:	fe5214e3          	bne	tp,t0,80000518 <test_21+0x8>
    80000534:	09a00393          	li	t2,154
    80000538:	10771a63          	bne	a4,t2,8000064c <fail>

000000008000053c <test_22>:
    8000053c:	01600193          	li	gp,22
    80000540:	00000213          	li	tp,0
    80000544:	00b00113          	li	sp,11
    80000548:	00f00093          	li	ra,15
    8000054c:	00000013          	nop
    80000550:	00000013          	nop
    80000554:	02208733          	mul	a4,ra,sp
    80000558:	00120213          	addi	tp,tp,1 # 1 <_start-0x7fffffff>
    8000055c:	00200293          	li	t0,2
    80000560:	fe5212e3          	bne	tp,t0,80000544 <test_22+0x8>
    80000564:	0a500393          	li	t2,165
    80000568:	0e771263          	bne	a4,t2,8000064c <fail>

000000008000056c <test_23>:
    8000056c:	01700193          	li	gp,23
    80000570:	00000213          	li	tp,0
    80000574:	00b00113          	li	sp,11
    80000578:	00000013          	nop
    8000057c:	00d00093          	li	ra,13
    80000580:	02208733          	mul	a4,ra,sp
    80000584:	00120213          	addi	tp,tp,1 # 1 <_start-0x7fffffff>
    80000588:	00200293          	li	t0,2
    8000058c:	fe5214e3          	bne	tp,t0,80000574 <test_23+0x8>
    80000590:	08f00393          	li	t2,143
    80000594:	0a771c63          	bne	a4,t2,8000064c <fail>

0000000080000598 <test_24>:
    80000598:	01800193          	li	gp,24
    8000059c:	00000213          	li	tp,0
    800005a0:	00b00113          	li	sp,11
    800005a4:	00000013          	nop
    800005a8:	00e00093          	li	ra,14
    800005ac:	00000013          	nop
    800005b0:	02208733          	mul	a4,ra,sp
    800005b4:	00120213          	addi	tp,tp,1 # 1 <_start-0x7fffffff>
    800005b8:	00200293          	li	t0,2
    800005bc:	fe5212e3          	bne	tp,t0,800005a0 <test_24+0x8>
    800005c0:	09a00393          	li	t2,154
    800005c4:	08771463          	bne	a4,t2,8000064c <fail>

00000000800005c8 <test_25>:
    800005c8:	01900193          	li	gp,25
    800005cc:	00000213          	li	tp,0
    800005d0:	00b00113          	li	sp,11
    800005d4:	00000013          	nop
    800005d8:	00000013          	nop
    800005dc:	00f00093          	li	ra,15
    800005e0:	02208733          	mul	a4,ra,sp
    800005e4:	00120213          	addi	tp,tp,1 # 1 <_start-0x7fffffff>
    800005e8:	00200293          	li	t0,2
    800005ec:	fe5212e3          	bne	tp,t0,800005d0 <test_25+0x8>
    800005f0:	0a500393          	li	t2,165
    800005f4:	04771c63          	bne	a4,t2,8000064c <fail>

00000000800005f8 <test_26>:
    800005f8:	01a00193          	li	gp,26
    800005fc:	01f00093          	li	ra,31
    80000600:	02100133          	mul	sp,zero,ra
    80000604:	00000393          	li	t2,0
    80000608:	04711263          	bne	sp,t2,8000064c <fail>

000000008000060c <test_27>:
    8000060c:	01b00193          	li	gp,27
    80000610:	02000093          	li	ra,32
    80000614:	02008133          	mul	sp,ra,zero
    80000618:	00000393          	li	t2,0
    8000061c:	02711863          	bne	sp,t2,8000064c <fail>

0000000080000620 <test_28>:
    80000620:	01c00193          	li	gp,28
    80000624:	020000b3          	mul	ra,zero,zero
    80000628:	00000393          	li	t2,0
    8000062c:	02709063          	bne	ra,t2,8000064c <fail>

0000000080000630 <test_29>:
    80000630:	01d00193          	li	gp,29
    80000634:	02100093          	li	ra,33
    80000638:	02200113          	li	sp,34
    8000063c:	02208033          	mul	zero,ra,sp
    80000640:	00000393          	li	t2,0
    80000644:	00701463          	bne	zero,t2,8000064c <fail>
    80000648:	02301063          	bne	zero,gp,80000668 <pass>

000000008000064c <fail>:
    8000064c:	0ff0000f          	fence
    80000650:	00018063          	beqz	gp,80000650 <fail+0x4>
    80000654:	00119193          	slli	gp,gp,0x1
    80000658:	0011e193          	ori	gp,gp,1
    8000065c:	05d00893          	li	a7,93
    80000660:	00018513          	mv	a0,gp
    80000664:	00000073          	ecall

0000000080000668 <pass>:
    80000668:	0ff0000f          	fence
    8000066c:	00100193          	li	gp,1
    80000670:	05d00893          	li	a7,93
    80000674:	00000513          	li	a0,0
    80000678:	00000073          	ecall
    8000067c:	c0001073          	unimp
    80000680:	0000                	.2byte	0x0
    80000682:	0000                	.2byte	0x0
    80000684:	0000                	.2byte	0x0
    80000686:	0000                	.2byte	0x0
    80000688:	0000                	.2byte	0x0
    8000068a:	0000                	.2byte	0x0
    8000068c:	0000                	.2byte	0x0
    8000068e:	0000                	.2byte	0x0
    80000690:	0000                	.2byte	0x0
    80000692:	0000                	.2byte	0x0
    80000694:	0000                	.2byte	0x0
    80000696:	0000                	.2byte	0x0
    80000698:	0000                	.2byte	0x0
    8000069a:	0000                	.2byte	0x0
    8000069c:	0000                	.2byte	0x0
    8000069e:	0000                	.2byte	0x0
    800006a0:	0000                	.2byte	0x0
    800006a2:	0000                	.2byte	0x0
    800006a4:	0000                	.2byte	0x0
    800006a6:	0000                	.2byte	0x0
    800006a8:	0000                	.2byte	0x0
    800006aa:	0000                	.2byte	0x0
    800006ac:	0000                	.2byte	0x0
    800006ae:	0000                	.2byte	0x0
    800006b0:	0000                	.2byte	0x0
    800006b2:	0000                	.2byte	0x0
    800006b4:	0000                	.2byte	0x0
    800006b6:	0000                	.2byte	0x0
    800006b8:	0000                	.2byte	0x0
    800006ba:	0000                	.2byte	0x0
