
mm.riscv:     file format elf64-littleriscv


Disassembly of section .text.init:

0000000080000000 <_start>:
    80000000:	4081                	li	ra,0
    80000002:	4101                	li	sp,0
    80000004:	4181                	li	gp,0
    80000006:	4201                	li	tp,0
    80000008:	4281                	li	t0,0
    8000000a:	4301                	li	t1,0
    8000000c:	4381                	li	t2,0
    8000000e:	4401                	li	s0,0
    80000010:	4481                	li	s1,0
    80000012:	4501                	li	a0,0
    80000014:	4581                	li	a1,0
    80000016:	4601                	li	a2,0
    80000018:	4681                	li	a3,0
    8000001a:	4701                	li	a4,0
    8000001c:	4781                	li	a5,0
    8000001e:	4801                	li	a6,0
    80000020:	4881                	li	a7,0
    80000022:	4901                	li	s2,0
    80000024:	4981                	li	s3,0
    80000026:	4a01                	li	s4,0
    80000028:	4a81                	li	s5,0
    8000002a:	4b01                	li	s6,0
    8000002c:	4b81                	li	s7,0
    8000002e:	4c01                	li	s8,0
    80000030:	4c81                	li	s9,0
    80000032:	4d01                	li	s10,0
    80000034:	4d81                	li	s11,0
    80000036:	4e01                	li	t3,0
    80000038:	4e81                	li	t4,0
    8000003a:	4f01                	li	t5,0
    8000003c:	4f81                	li	t6,0
    8000003e:	62f9                	lui	t0,0x1e
    80000040:	3002a073          	csrs	mstatus,t0
    80000044:	4285                	li	t0,1
    80000046:	02fe                	slli	t0,t0,0x1f
    80000048:	0002d863          	bgez	t0,80000058 <_start+0x58>
    8000004c:	4505                	li	a0,1
    8000004e:	00001297          	auipc	t0,0x1
    80000052:	faa2a923          	sw	a0,-78(t0) # 80001000 <tohost>
    80000056:	bfdd                	j	8000004c <_start+0x4c>
    80000058:	00000297          	auipc	t0,0x0
    8000005c:	09028293          	addi	t0,t0,144 # 800000e8 <_start+0xe8>
    80000060:	30529073          	csrw	mtvec,t0
    80000064:	00301073          	fscsr	zero
    80000068:	f0000053          	fmv.w.x	ft0,zero
    8000006c:	f00000d3          	fmv.w.x	ft1,zero
    80000070:	f0000153          	fmv.w.x	ft2,zero
    80000074:	f00001d3          	fmv.w.x	ft3,zero
    80000078:	f0000253          	fmv.w.x	ft4,zero
    8000007c:	f00002d3          	fmv.w.x	ft5,zero
    80000080:	f0000353          	fmv.w.x	ft6,zero
    80000084:	f00003d3          	fmv.w.x	ft7,zero
    80000088:	f0000453          	fmv.w.x	fs0,zero
    8000008c:	f00004d3          	fmv.w.x	fs1,zero
    80000090:	f0000553          	fmv.w.x	fa0,zero
    80000094:	f00005d3          	fmv.w.x	fa1,zero
    80000098:	f0000653          	fmv.w.x	fa2,zero
    8000009c:	f00006d3          	fmv.w.x	fa3,zero
    800000a0:	f0000753          	fmv.w.x	fa4,zero
    800000a4:	f00007d3          	fmv.w.x	fa5,zero
    800000a8:	f0000853          	fmv.w.x	fa6,zero
    800000ac:	f00008d3          	fmv.w.x	fa7,zero
    800000b0:	f0000953          	fmv.w.x	fs2,zero
    800000b4:	f00009d3          	fmv.w.x	fs3,zero
    800000b8:	f0000a53          	fmv.w.x	fs4,zero
    800000bc:	f0000ad3          	fmv.w.x	fs5,zero
    800000c0:	f0000b53          	fmv.w.x	fs6,zero
    800000c4:	f0000bd3          	fmv.w.x	fs7,zero
    800000c8:	f0000c53          	fmv.w.x	fs8,zero
    800000cc:	f0000cd3          	fmv.w.x	fs9,zero
    800000d0:	f0000d53          	fmv.w.x	fs10,zero
    800000d4:	f0000dd3          	fmv.w.x	fs11,zero
    800000d8:	f0000e53          	fmv.w.x	ft8,zero
    800000dc:	f0000ed3          	fmv.w.x	ft9,zero
    800000e0:	f0000f53          	fmv.w.x	ft10,zero
    800000e4:	f0000fd3          	fmv.w.x	ft11,zero
    800000e8:	00000297          	auipc	t0,0x0
    800000ec:	03828293          	addi	t0,t0,56 # 80000120 <trap_entry>
    800000f0:	30529073          	csrw	mtvec,t0
    800000f4:	00005197          	auipc	gp,0x5
    800000f8:	6cc18193          	addi	gp,gp,1740 # 800057c0 <__global_pointer$>
    800000fc:	abf18213          	addi	tp,gp,-1345 # 8000527f <_end+0x3f>
    80000100:	fc027213          	andi	tp,tp,-64
    80000104:	f1402573          	csrr	a0,mhartid
    80000108:	4585                	li	a1,1
    8000010a:	00b57063          	bgeu	a0,a1,8000010a <_start+0x10a>
    8000010e:	00150113          	addi	sp,a0,1
    80000112:	0146                	slli	sp,sp,0x11
    80000114:	9112                	add	sp,sp,tp
    80000116:	01151613          	slli	a2,a0,0x11
    8000011a:	9232                	add	tp,tp,a2
    8000011c:	4fb0406f          	j	80004e16 <_init>

0000000080000120 <trap_entry>:
    80000120:	716d                	addi	sp,sp,-272
    80000122:	e406                	sd	ra,8(sp)
    80000124:	e80a                	sd	sp,16(sp)
    80000126:	ec0e                	sd	gp,24(sp)
    80000128:	f012                	sd	tp,32(sp)
    8000012a:	f416                	sd	t0,40(sp)
    8000012c:	f81a                	sd	t1,48(sp)
    8000012e:	fc1e                	sd	t2,56(sp)
    80000130:	e0a2                	sd	s0,64(sp)
    80000132:	e4a6                	sd	s1,72(sp)
    80000134:	e8aa                	sd	a0,80(sp)
    80000136:	ecae                	sd	a1,88(sp)
    80000138:	f0b2                	sd	a2,96(sp)
    8000013a:	f4b6                	sd	a3,104(sp)
    8000013c:	f8ba                	sd	a4,112(sp)
    8000013e:	fcbe                	sd	a5,120(sp)
    80000140:	e142                	sd	a6,128(sp)
    80000142:	e546                	sd	a7,136(sp)
    80000144:	e94a                	sd	s2,144(sp)
    80000146:	ed4e                	sd	s3,152(sp)
    80000148:	f152                	sd	s4,160(sp)
    8000014a:	f556                	sd	s5,168(sp)
    8000014c:	f95a                	sd	s6,176(sp)
    8000014e:	fd5e                	sd	s7,184(sp)
    80000150:	e1e2                	sd	s8,192(sp)
    80000152:	e5e6                	sd	s9,200(sp)
    80000154:	e9ea                	sd	s10,208(sp)
    80000156:	edee                	sd	s11,216(sp)
    80000158:	f1f2                	sd	t3,224(sp)
    8000015a:	f5f6                	sd	t4,232(sp)
    8000015c:	f9fa                	sd	t5,240(sp)
    8000015e:	fdfe                	sd	t6,248(sp)
    80000160:	34202573          	csrr	a0,mcause
    80000164:	341025f3          	csrr	a1,mepc
    80000168:	860a                	mv	a2,sp
    8000016a:	2f5040ef          	jal	ra,80004c5e <handle_trap>
    8000016e:	34151073          	csrw	mepc,a0
    80000172:	6289                	lui	t0,0x2
    80000174:	8002829b          	addiw	t0,t0,-2048 # 1800 <buflen.1+0x1780>
    80000178:	3002a073          	csrs	mstatus,t0
    8000017c:	60a2                	ld	ra,8(sp)
    8000017e:	6142                	ld	sp,16(sp)
    80000180:	61e2                	ld	gp,24(sp)
    80000182:	7202                	ld	tp,32(sp)
    80000184:	72a2                	ld	t0,40(sp)
    80000186:	7342                	ld	t1,48(sp)
    80000188:	73e2                	ld	t2,56(sp)
    8000018a:	6406                	ld	s0,64(sp)
    8000018c:	64a6                	ld	s1,72(sp)
    8000018e:	6546                	ld	a0,80(sp)
    80000190:	65e6                	ld	a1,88(sp)
    80000192:	7606                	ld	a2,96(sp)
    80000194:	76a6                	ld	a3,104(sp)
    80000196:	7746                	ld	a4,112(sp)
    80000198:	77e6                	ld	a5,120(sp)
    8000019a:	680a                	ld	a6,128(sp)
    8000019c:	68aa                	ld	a7,136(sp)
    8000019e:	694a                	ld	s2,144(sp)
    800001a0:	69ea                	ld	s3,152(sp)
    800001a2:	7a0a                	ld	s4,160(sp)
    800001a4:	7aaa                	ld	s5,168(sp)
    800001a6:	7b4a                	ld	s6,176(sp)
    800001a8:	7bea                	ld	s7,184(sp)
    800001aa:	6c0e                	ld	s8,192(sp)
    800001ac:	6cae                	ld	s9,200(sp)
    800001ae:	6d4e                	ld	s10,208(sp)
    800001b0:	6dee                	ld	s11,216(sp)
    800001b2:	7e0e                	ld	t3,224(sp)
    800001b4:	7eae                	ld	t4,232(sp)
    800001b6:	7f4e                	ld	t5,240(sp)
    800001b8:	7fee                	ld	t6,248(sp)
    800001ba:	6151                	addi	sp,sp,272
    800001bc:	30200073          	mret
    800001c0:	0000                	unimp

Disassembly of section .text:

0000000080002000 <mm_naive>:
    80002000:	7159                	addi	sp,sp,-112
    80002002:	f066                	sd	s9,32(sp)
    80002004:	f4a2                	sd	s0,104(sp)
    80002006:	f0a6                	sd	s1,96(sp)
    80002008:	ecca                	sd	s2,88(sp)
    8000200a:	e8ce                	sd	s3,80(sp)
    8000200c:	e4d2                	sd	s4,72(sp)
    8000200e:	e0d6                	sd	s5,64(sp)
    80002010:	fc5a                	sd	s6,56(sp)
    80002012:	f85e                	sd	s7,48(sp)
    80002014:	f462                	sd	s8,40(sp)
    80002016:	ec6a                	sd	s10,24(sp)
    80002018:	e86e                	sd	s11,16(sp)
    8000201a:	7cc6                	ld	s9,112(sp)
    8000201c:	10050863          	beqz	a0,8000212c <mm_naive+0x12c>
    80002020:	00181313          	slli	t1,a6,0x1
    80002024:	8fb2                	mv	t6,a2
    80002026:	8c46                	mv	s8,a7
    80002028:	00371b93          	slli	s7,a4,0x3
    8000202c:	8b2a                	mv	s6,a0
    8000202e:	9342                	add	t1,t1,a6
    80002030:	00361513          	slli	a0,a2,0x3
    80002034:	84ae                	mv	s1,a1
    80002036:	8936                	mv	s2,a3
    80002038:	8aba                	mv	s5,a4
    8000203a:	9536                	add	a0,a0,a3
    8000203c:	82be                	mv	t0,a5
    8000203e:	8a42                	mv	s4,a6
    80002040:	00581e93          	slli	t4,a6,0x5
    80002044:	00381613          	slli	a2,a6,0x3
    80002048:	00481e13          	slli	t3,a6,0x4
    8000204c:	030e                	slli	t1,t1,0x3
    8000204e:	4401                	li	s0,0
    80002050:	4581                	li	a1,0
    80002052:	4701                	li	a4,0
    80002054:	ffcff893          	andi	a7,t6,-4
    80002058:	498d                	li	s3,3
    8000205a:	86de                	mv	a3,s7
    8000205c:	8f62                	mv	t5,s8
    8000205e:	c0e9                	beqz	s1,80002120 <mm_naive+0x120>
    80002060:	00359b93          	slli	s7,a1,0x3
    80002064:	00341c13          	slli	s8,s0,0x3
    80002068:	9bfa                	add	s7,s7,t5
    8000206a:	9c4a                	add	s8,s8,s2
    8000206c:	4381                	li	t2,0
    8000206e:	8dba                	mv	s11,a4
    80002070:	8d36                	mv	s10,a3
    80002072:	000bb787          	fld	fa5,0(s7)
    80002076:	0df9f963          	bgeu	s3,t6,80002148 <mm_naive+0x148>
    8000207a:	f20006d3          	fmv.d.x	fa3,zero
    8000207e:	00339793          	slli	a5,t2,0x3
    80002082:	9796                	add	a5,a5,t0
    80002084:	22d68653          	fmv.d	fa2,fa3
    80002088:	22d68753          	fmv.d	fa4,fa3
    8000208c:	8762                	mv	a4,s8
    8000208e:	4681                	li	a3,0
    80002090:	e06e                	sd	s11,0(sp)
    80002092:	e41e                	sd	t2,8(sp)
    80002094:	00c78db3          	add	s11,a5,a2
    80002098:	01c783b3          	add	t2,a5,t3
    8000209c:	00678833          	add	a6,a5,t1
    800020a0:	00073287          	fld	ft5,0(a4)
    800020a4:	0007b207          	fld	ft4,0(a5)
    800020a8:	00873187          	fld	ft3,8(a4)
    800020ac:	01073087          	fld	ft1,16(a4)
    800020b0:	2f08                	fld	fa0,24(a4)
    800020b2:	000db107          	fld	ft2,0(s11)
    800020b6:	0003b007          	fld	ft0,0(t2)
    800020ba:	00083587          	fld	fa1,0(a6)
    800020be:	0691                	addi	a3,a3,4
    800020c0:	7a42f7c3          	fmadd.d	fa5,ft5,ft4,fa5
    800020c4:	7221f743          	fmadd.d	fa4,ft3,ft2,fa4
    800020c8:	6200f643          	fmadd.d	fa2,ft1,ft0,fa2
    800020cc:	6ab576c3          	fmadd.d	fa3,fa0,fa1,fa3
    800020d0:	02070713          	addi	a4,a4,32
    800020d4:	97f6                	add	a5,a5,t4
    800020d6:	fb16efe3          	bltu	a3,a7,80002094 <mm_naive+0x94>
    800020da:	02c77753          	fadd.d	fa4,fa4,fa2
    800020de:	6d82                	ld	s11,0(sp)
    800020e0:	63a2                	ld	t2,8(sp)
    800020e2:	87c6                	mv	a5,a7
    800020e4:	02d77753          	fadd.d	fa4,fa4,fa3
    800020e8:	03f7f263          	bgeu	a5,t6,8000210c <mm_naive+0x10c>
    800020ec:	02fa0733          	mul	a4,s4,a5
    800020f0:	97a2                	add	a5,a5,s0
    800020f2:	078e                	slli	a5,a5,0x3
    800020f4:	97ca                	add	a5,a5,s2
    800020f6:	971e                	add	a4,a4,t2
    800020f8:	070e                	slli	a4,a4,0x3
    800020fa:	9716                	add	a4,a4,t0
    800020fc:	2390                	fld	fa2,0(a5)
    800020fe:	2314                	fld	fa3,0(a4)
    80002100:	07a1                	addi	a5,a5,8
    80002102:	9732                	add	a4,a4,a2
    80002104:	7ad677c3          	fmadd.d	fa5,fa2,fa3,fa5
    80002108:	fef51ae3          	bne	a0,a5,800020fc <mm_naive+0xfc>
    8000210c:	02e7f7d3          	fadd.d	fa5,fa5,fa4
    80002110:	0385                	addi	t2,t2,1
    80002112:	0ba1                	addi	s7,s7,8
    80002114:	fefbbc27          	fsd	fa5,-8(s7)
    80002118:	f4749de3          	bne	s1,t2,80002072 <mm_naive+0x72>
    8000211c:	876e                	mv	a4,s11
    8000211e:	86ea                	mv	a3,s10
    80002120:	0705                	addi	a4,a4,1
    80002122:	95e6                	add	a1,a1,s9
    80002124:	9456                	add	s0,s0,s5
    80002126:	9536                	add	a0,a0,a3
    80002128:	f2eb1be3          	bne	s6,a4,8000205e <mm_naive+0x5e>
    8000212c:	7426                	ld	s0,104(sp)
    8000212e:	7486                	ld	s1,96(sp)
    80002130:	6966                	ld	s2,88(sp)
    80002132:	69c6                	ld	s3,80(sp)
    80002134:	6a26                	ld	s4,72(sp)
    80002136:	6a86                	ld	s5,64(sp)
    80002138:	7b62                	ld	s6,56(sp)
    8000213a:	7bc2                	ld	s7,48(sp)
    8000213c:	7c22                	ld	s8,40(sp)
    8000213e:	7c82                	ld	s9,32(sp)
    80002140:	6d62                	ld	s10,24(sp)
    80002142:	6dc2                	ld	s11,16(sp)
    80002144:	6165                	addi	sp,sp,112
    80002146:	8082                	ret
    80002148:	f2000753          	fmv.d.x	fa4,zero
    8000214c:	4781                	li	a5,0
    8000214e:	bf69                	j	800020e8 <mm_naive+0xe8>

0000000080002150 <mm_cb>:
    80002150:	d6010113          	addi	sp,sp,-672
    80002154:	27613023          	sd	s6,608(sp)
    80002158:	8b2e                	mv	s6,a1
    8000215a:	45e5                	li	a1,25
    8000215c:	02bb5f33          	divu	t5,s6,a1
    80002160:	28813823          	sd	s0,656(sp)
    80002164:	28913423          	sd	s1,648(sp)
    80002168:	1500                	addi	s0,sp,672
    8000216a:	25713c23          	sd	s7,600(sp)
    8000216e:	25813823          	sd	s8,592(sp)
    80002172:	25a13023          	sd	s10,576(sp)
    80002176:	28113c23          	sd	ra,664(sp)
    8000217a:	29213023          	sd	s2,640(sp)
    8000217e:	27313c23          	sd	s3,632(sp)
    80002182:	27413823          	sd	s4,624(sp)
    80002186:	27513423          	sd	s5,616(sp)
    8000218a:	25913423          	sd	s9,584(sp)
    8000218e:	23b13c23          	sd	s11,568(sp)
    80002192:	22813427          	fsd	fs0,552(sp)
    80002196:	22913027          	fsd	fs1,544(sp)
    8000219a:	21213c27          	fsd	fs2,536(sp)
    8000219e:	21313827          	fsd	fs3,528(sp)
    800021a2:	21413427          	fsd	fs4,520(sp)
    800021a6:	21513027          	fsd	fs5,512(sp)
    800021aa:	bfda                	fsd	fs6,504(sp)
    800021ac:	bbde                	fsd	fs7,496(sp)
    800021ae:	b7e2                	fsd	fs8,488(sp)
    800021b0:	b3e6                	fsd	fs9,480(sp)
    800021b2:	afea                	fsd	fs10,472(sp)
    800021b4:	45e1                	li	a1,24
    800021b6:	84b2                	mv	s1,a2
    800021b8:	eaf43823          	sd	a5,-336(s0)
    800021bc:	8eaa                	mv	t4,a0
    800021be:	8d46                	mv	s10,a7
    800021c0:	8c36                	mv	s8,a3
    800021c2:	6309                	lui	t1,0x2
    800021c4:	137d                	addi	t1,t1,-1 # 1fff <buflen.1+0x1f7f>
    800021c6:	f2c43023          	sd	a2,-224(s0)
    800021ca:	7679                	lui	a2,0xffffe
    800021cc:	eaa43c23          	sd	a0,-328(s0)
    800021d0:	8542                	mv	a0,a6
    800021d2:	00043803          	ld	a6,0(s0)
    800021d6:	001f1793          	slli	a5,t5,0x1
    800021da:	02b4de33          	divu	t3,s1,a1
    800021de:	97fa                	add	a5,a5,t5
    800021e0:	078e                	slli	a5,a5,0x3
    800021e2:	01e784b3          	add	s1,a5,t5
    800021e6:	f0943423          	sd	s1,-248(s0)
    800021ea:	02bef7b3          	remu	a5,t4,a1
    800021ee:	001e1893          	slli	a7,t3,0x1
    800021f2:	01c886b3          	add	a3,a7,t3
    800021f6:	00369b93          	slli	s7,a3,0x3
    800021fa:	f1743c23          	sd	s7,-232(s0)
    800021fe:	40fe85b3          	sub	a1,t4,a5
    80002202:	037586b3          	mul	a3,a1,s7
    80002206:	f2b43423          	sd	a1,-216(s0)
    8000220a:	40068693          	addi	a3,a3,1024
    8000220e:	068e                	slli	a3,a3,0x3
    80002210:	40d10133          	sub	sp,sp,a3
    80002214:	0814                	addi	a3,sp,16
    80002216:	969a                	add	a3,a3,t1
    80002218:	8ef1                	and	a3,a3,a2
    8000221a:	029587b3          	mul	a5,a1,s1
    8000221e:	e6d43c23          	sd	a3,-392(s0)
    80002222:	037486b3          	mul	a3,s1,s7
    80002226:	40078793          	addi	a5,a5,1024
    8000222a:	078e                	slli	a5,a5,0x3
    8000222c:	07b9                	addi	a5,a5,14
    8000222e:	9bc1                	andi	a5,a5,-16
    80002230:	40068693          	addi	a3,a3,1024
    80002234:	068e                	slli	a3,a3,0x3
    80002236:	40d10133          	sub	sp,sp,a3
    8000223a:	0814                	addi	a3,sp,16
    8000223c:	40f10133          	sub	sp,sp,a5
    80002240:	081c                	addi	a5,sp,16
    80002242:	969a                	add	a3,a3,t1
    80002244:	979a                	add	a5,a5,t1
    80002246:	8ef1                	and	a3,a3,a2
    80002248:	8ff1                	and	a5,a5,a2
    8000224a:	e6d43823          	sd	a3,-400(s0)
    8000224e:	eef43423          	sd	a5,-280(s0)
    80002252:	e199                	bnez	a1,80002258 <mm_cb+0x108>
    80002254:	37f0106f          	j	80003dd2 <mm_cb+0x1c82>
    80002258:	00171a13          	slli	s4,a4,0x1
    8000225c:	00ea07b3          	add	a5,s4,a4
    80002260:	00679f93          	slli	t6,a5,0x6
    80002264:	8662                	mv	a2,s8
    80002266:	00371393          	slli	t2,a4,0x3
    8000226a:	4681                	li	a3,0
    8000226c:	44e1                	li	s1,24
    8000226e:	24000993          	li	s3,576
    80002272:	080b8263          	beqz	s7,800022f6 <mm_cb+0x1a6>
    80002276:	0296d7b3          	divu	a5,a3,s1
    8000227a:	8932                	mv	s2,a2
    8000227c:	4281                	li	t0,0
    8000227e:	03c787b3          	mul	a5,a5,t3
    80002282:	0c090913          	addi	s2,s2,192
    80002286:	8eca                	mv	t4,s2
    80002288:	4c81                	li	s9,0
    8000228a:	0292d5b3          	divu	a1,t0,s1
    8000228e:	95be                	add	a1,a1,a5
    80002290:	00359a93          	slli	s5,a1,0x3
    80002294:	9aae                	add	s5,s5,a1
    80002296:	e7843583          	ld	a1,-392(s0)
    8000229a:	0aa6                	slli	s5,s5,0x9
    8000229c:	9aae                	add	s5,s5,a1
    8000229e:	f40e8593          	addi	a1,t4,-192
    800022a2:	8356                	mv	t1,s5
    800022a4:	0005b087          	fld	ft1,0(a1)
    800022a8:	0085b007          	fld	ft0,8(a1)
    800022ac:	2988                	fld	fa0,16(a1)
    800022ae:	2d8c                	fld	fa1,24(a1)
    800022b0:	3190                	fld	fa2,32(a1)
    800022b2:	3594                	fld	fa3,40(a1)
    800022b4:	3998                	fld	fa4,48(a1)
    800022b6:	3d9c                	fld	fa5,56(a1)
    800022b8:	00133027          	fsd	ft1,0(t1)
    800022bc:	00033427          	fsd	ft0,8(t1)
    800022c0:	00a33827          	fsd	fa0,16(t1)
    800022c4:	00b33c27          	fsd	fa1,24(t1)
    800022c8:	02c33027          	fsd	fa2,32(t1)
    800022cc:	02d33427          	fsd	fa3,40(t1)
    800022d0:	02e33827          	fsd	fa4,48(t1)
    800022d4:	02f33c27          	fsd	fa5,56(t1)
    800022d8:	04058593          	addi	a1,a1,64
    800022dc:	04030313          	addi	t1,t1,64
    800022e0:	fcbe92e3          	bne	t4,a1,800022a4 <mm_cb+0x154>
    800022e4:	0ce1                	addi	s9,s9,24
    800022e6:	0c0a8a93          	addi	s5,s5,192
    800022ea:	9e9e                	add	t4,t4,t2
    800022ec:	fb3c99e3          	bne	s9,s3,8000229e <mm_cb+0x14e>
    800022f0:	02e1                	addi	t0,t0,24
    800022f2:	f972e8e3          	bltu	t0,s7,80002282 <mm_cb+0x132>
    800022f6:	f2843783          	ld	a5,-216(s0)
    800022fa:	06e1                	addi	a3,a3,24
    800022fc:	967e                	add	a2,a2,t6
    800022fe:	f6f6eae3          	bltu	a3,a5,80002272 <mm_cb+0x122>
    80002302:	f1843783          	ld	a5,-232(s0)
    80002306:	00151493          	slli	s1,a0,0x1
    8000230a:	00351b93          	slli	s7,a0,0x3
    8000230e:	cbe9                	beqz	a5,800023e0 <mm_cb+0x290>
    80002310:	00151493          	slli	s1,a0,0x1
    80002314:	00a487b3          	add	a5,s1,a0
    80002318:	eb043603          	ld	a2,-336(s0)
    8000231c:	00679f93          	slli	t6,a5,0x6
    80002320:	6785                	lui	a5,0x1
    80002322:	00351b93          	slli	s7,a0,0x3
    80002326:	4681                	li	a3,0
    80002328:	43e1                	li	t2,24
    8000232a:	49e5                	li	s3,25
    8000232c:	2c078a13          	addi	s4,a5,704 # 12c0 <buflen.1+0x1240>
    80002330:	25800a93          	li	s5,600
    80002334:	0963f763          	bgeu	t2,s6,800023c2 <mm_cb+0x272>
    80002338:	0276d7b3          	divu	a5,a3,t2
    8000233c:	8932                	mv	s2,a2
    8000233e:	4281                	li	t0,0
    80002340:	03e787b3          	mul	a5,a5,t5
    80002344:	e7043583          	ld	a1,-400(s0)
    80002348:	0c090e93          	addi	t4,s2,192
    8000234c:	4d81                	li	s11,0
    8000234e:	0332dcb3          	divu	s9,t0,s3
    80002352:	9cbe                	add	s9,s9,a5
    80002354:	034c8cb3          	mul	s9,s9,s4
    80002358:	9cae                	add	s9,s9,a1
    8000235a:	f40e8593          	addi	a1,t4,-192
    8000235e:	8366                	mv	t1,s9
    80002360:	0005b087          	fld	ft1,0(a1)
    80002364:	0085b007          	fld	ft0,8(a1)
    80002368:	2988                	fld	fa0,16(a1)
    8000236a:	2d8c                	fld	fa1,24(a1)
    8000236c:	3190                	fld	fa2,32(a1)
    8000236e:	3594                	fld	fa3,40(a1)
    80002370:	3998                	fld	fa4,48(a1)
    80002372:	3d9c                	fld	fa5,56(a1)
    80002374:	00133027          	fsd	ft1,0(t1)
    80002378:	00033427          	fsd	ft0,8(t1)
    8000237c:	00a33827          	fsd	fa0,16(t1)
    80002380:	00b33c27          	fsd	fa1,24(t1)
    80002384:	02c33027          	fsd	fa2,32(t1)
    80002388:	02d33427          	fsd	fa3,40(t1)
    8000238c:	02e33827          	fsd	fa4,48(t1)
    80002390:	02f33c27          	fsd	fa5,56(t1)
    80002394:	04058593          	addi	a1,a1,64
    80002398:	04030313          	addi	t1,t1,64
    8000239c:	fcbe92e3          	bne	t4,a1,80002360 <mm_cb+0x210>
    800023a0:	000eb787          	fld	fa5,0(t4)
    800023a4:	0de5                	addi	s11,s11,25
    800023a6:	0c8c8c93          	addi	s9,s9,200
    800023aa:	fefcbc27          	fsd	fa5,-8(s9)
    800023ae:	9ede                	add	t4,t4,s7
    800023b0:	fb5d95e3          	bne	s11,s5,8000235a <mm_cb+0x20a>
    800023b4:	f0843583          	ld	a1,-248(s0)
    800023b8:	02e5                	addi	t0,t0,25
    800023ba:	0c890913          	addi	s2,s2,200
    800023be:	f8b2e3e3          	bltu	t0,a1,80002344 <mm_cb+0x1f4>
    800023c2:	f1843783          	ld	a5,-232(s0)
    800023c6:	06e1                	addi	a3,a3,24
    800023c8:	967e                	add	a2,a2,t6
    800023ca:	f6f6e5e3          	bltu	a3,a5,80002334 <mm_cb+0x1e4>
    800023ce:	f2843783          	ld	a5,-216(s0)
    800023d2:	e399                	bnez	a5,800023d8 <mm_cb+0x288>
    800023d4:	2090106f          	j	80003ddc <mm_cb+0x1c8c>
    800023d8:	00171a13          	slli	s4,a4,0x1
    800023dc:	00371393          	slli	t2,a4,0x3
    800023e0:	00181793          	slli	a5,a6,0x1
    800023e4:	eaf43023          	sd	a5,-352(s0)
    800023e8:	97c2                	add	a5,a5,a6
    800023ea:	079a                	slli	a5,a5,0x6
    800023ec:	ecf43c23          	sd	a5,-296(s0)
    800023f0:	00381793          	slli	a5,a6,0x3
    800023f4:	f0f43823          	sd	a5,-240(s0)
    800023f8:	6785                	lui	a5,0x1
    800023fa:	866a                	mv	a2,s10
    800023fc:	4681                	li	a3,0
    800023fe:	49e1                	li	s3,24
    80002400:	4de5                	li	s11,25
    80002402:	2c078293          	addi	t0,a5,704 # 12c0 <buflen.1+0x1240>
    80002406:	25800593          	li	a1,600
    8000240a:	0b69f563          	bgeu	s3,s6,800024b4 <mm_cb+0x364>
    8000240e:	0336d333          	divu	t1,a3,s3
    80002412:	8932                	mv	s2,a2
    80002414:	4781                	li	a5,0
    80002416:	03e30cb3          	mul	s9,t1,t5
    8000241a:	837a                	mv	t1,t5
    8000241c:	ee843e83          	ld	t4,-280(s0)
    80002420:	0c090f13          	addi	t5,s2,192
    80002424:	4a81                	li	s5,0
    80002426:	f1943023          	sd	s9,-256(s0)
    8000242a:	03b7dfb3          	divu	t6,a5,s11
    8000242e:	9fe6                	add	t6,t6,s9
    80002430:	025f8fb3          	mul	t6,t6,t0
    80002434:	9ff6                	add	t6,t6,t4
    80002436:	f40f0e93          	addi	t4,t5,-192
    8000243a:	8cfe                	mv	s9,t6
    8000243c:	000eb087          	fld	ft1,0(t4)
    80002440:	008eb007          	fld	ft0,8(t4)
    80002444:	010eb507          	fld	fa0,16(t4)
    80002448:	018eb587          	fld	fa1,24(t4)
    8000244c:	020eb607          	fld	fa2,32(t4)
    80002450:	028eb687          	fld	fa3,40(t4)
    80002454:	030eb707          	fld	fa4,48(t4)
    80002458:	038eb787          	fld	fa5,56(t4)
    8000245c:	001cb027          	fsd	ft1,0(s9)
    80002460:	000cb427          	fsd	ft0,8(s9)
    80002464:	00acb827          	fsd	fa0,16(s9)
    80002468:	00bcbc27          	fsd	fa1,24(s9)
    8000246c:	02ccb027          	fsd	fa2,32(s9)
    80002470:	02dcb427          	fsd	fa3,40(s9)
    80002474:	02ecb827          	fsd	fa4,48(s9)
    80002478:	02fcbc27          	fsd	fa5,56(s9)
    8000247c:	040e8e93          	addi	t4,t4,64
    80002480:	040c8c93          	addi	s9,s9,64
    80002484:	fbdf1ce3          	bne	t5,t4,8000243c <mm_cb+0x2ec>
    80002488:	000f3787          	fld	fa5,0(t5)
    8000248c:	f1043e83          	ld	t4,-240(s0)
    80002490:	0ae5                	addi	s5,s5,25
    80002492:	0cffb027          	fsd	fa5,192(t6)
    80002496:	0c8f8f93          	addi	t6,t6,200
    8000249a:	9f76                	add	t5,t5,t4
    8000249c:	f8ba9de3          	bne	s5,a1,80002436 <mm_cb+0x2e6>
    800024a0:	f0843e83          	ld	t4,-248(s0)
    800024a4:	07e5                	addi	a5,a5,25
    800024a6:	f0043c83          	ld	s9,-256(s0)
    800024aa:	0c890913          	addi	s2,s2,200
    800024ae:	f7d7e7e3          	bltu	a5,t4,8000241c <mm_cb+0x2cc>
    800024b2:	8f1a                	mv	t5,t1
    800024b4:	ed843783          	ld	a5,-296(s0)
    800024b8:	06e1                	addi	a3,a3,24
    800024ba:	963e                	add	a2,a2,a5
    800024bc:	f2843783          	ld	a5,-216(s0)
    800024c0:	f4f6e5e3          	bltu	a3,a5,8000240a <mm_cb+0x2ba>
    800024c4:	f2043683          	ld	a3,-224(s0)
    800024c8:	47e1                	li	a5,24
    800024ca:	01c88633          	add	a2,a7,t3
    800024ce:	02f6f5b3          	remu	a1,a3,a5
    800024d2:	00251793          	slli	a5,a0,0x2
    800024d6:	97aa                	add	a5,a5,a0
    800024d8:	00379893          	slli	a7,a5,0x3
    800024dc:	00ea07b3          	add	a5,s4,a4
    800024e0:	079a                	slli	a5,a5,0x6
    800024e2:	00a486b3          	add	a3,s1,a0
    800024e6:	eaf43423          	sd	a5,-344(s0)
    800024ea:	00571793          	slli	a5,a4,0x5
    800024ee:	ecf43823          	sd	a5,-304(s0)
    800024f2:	00669793          	slli	a5,a3,0x6
    800024f6:	def43423          	sd	a5,-536(s0)
    800024fa:	00581793          	slli	a5,a6,0x5
    800024fe:	e8f43c23          	sd	a5,-360(s0)
    80002502:	47e5                	li	a5,25
    80002504:	061a                	slli	a2,a2,0x6
    80002506:	00451f93          	slli	t6,a0,0x4
    8000250a:	dec43823          	sd	a2,-528(s0)
    8000250e:	e5f43c23          	sd	t6,-424(s0)
    80002512:	00cc0fb3          	add	t6,s8,a2
    80002516:	4e95                	li	t4,5
    80002518:	00469a93          	slli	s5,a3,0x4
    8000251c:	00369293          	slli	t0,a3,0x3
    80002520:	ef143023          	sd	a7,-288(s0)
    80002524:	e5143423          	sd	a7,-440(s0)
    80002528:	eb043d83          	ld	s11,-336(s0)
    8000252c:	e9643023          	sd	s6,-384(s0)
    80002530:	dd843423          	sd	s8,-568(s0)
    80002534:	e7743023          	sd	s7,-416(s0)
    80002538:	e4543823          	sd	t0,-432(s0)
    8000253c:	e5543023          	sd	s5,-448(s0)
    80002540:	e9e43423          	sd	t5,-376(s0)
    80002544:	dc743c23          	sd	t2,-552(s0)
    80002548:	eee43c23          	sd	a4,-264(s0)
    8000254c:	eea43823          	sd	a0,-272(s0)
    80002550:	dda43023          	sd	s10,-576(s0)
    80002554:	4981                	li	s3,0
    80002556:	8c4e                	mv	s8,s3
    80002558:	00551c93          	slli	s9,a0,0x5
    8000255c:	00451993          	slli	s3,a0,0x4
    80002560:	02fb7933          	remu	s2,s6,a5
    80002564:	00359793          	slli	a5,a1,0x3
    80002568:	e0f43023          	sd	a5,-512(s0)
    8000256c:	4799                	li	a5,6
    8000256e:	e2b43423          	sd	a1,-472(s0)
    80002572:	02f5d633          	divu	a2,a1,a5
    80002576:	e7243423          	sd	s2,-408(s0)
    8000257a:	03d956b3          	divu	a3,s2,t4
    8000257e:	00161793          	slli	a5,a2,0x1
    80002582:	97b2                	add	a5,a5,a2
    80002584:	0792                	slli	a5,a5,0x4
    80002586:	def43c23          	sd	a5,-520(s0)
    8000258a:	f1843783          	ld	a5,-232(s0)
    8000258e:	02a788b3          	mul	a7,a5,a0
    80002592:	00269793          	slli	a5,a3,0x2
    80002596:	97b6                	add	a5,a5,a3
    80002598:	ecf43423          	sd	a5,-312(s0)
    8000259c:	078e                	slli	a5,a5,0x3
    8000259e:	e2f43823          	sd	a5,-464(s0)
    800025a2:	0c800693          	li	a3,200
    800025a6:	00389793          	slli	a5,a7,0x3
    800025aa:	97ee                	add	a5,a5,s11
    800025ac:	e2f43c23          	sd	a5,-456(s0)
    800025b0:	03d977b3          	remu	a5,s2,t4
    800025b4:	8efe                	mv	t4,t6
    800025b6:	02df06b3          	mul	a3,t5,a3
    800025ba:	e0f43423          	sd	a5,-504(s0)
    800025be:	00dd07b3          	add	a5,s10,a3
    800025c2:	f0f43023          	sd	a5,-256(s0)
    800025c6:	02ca87b3          	mul	a5,s5,a2
    800025ca:	00dd8933          	add	s2,s11,a3
    800025ce:	dd243823          	sd	s2,-560(s0)
    800025d2:	8df2                	mv	s11,t3
    800025d4:	8956                	mv	s2,s5
    800025d6:	e0f43823          	sd	a5,-496(s0)
    800025da:	01043023          	sd	a6,0(s0)
    800025de:	ee043b03          	ld	s6,-288(s0)
    800025e2:	db443c23          	sd	s4,-584(s0)
    800025e6:	da943823          	sd	s1,-592(s0)
    800025ea:	8a16                	mv	s4,t0
    800025ec:	849e                	mv	s1,t2
    800025ee:	e8043703          	ld	a4,-384(s0)
    800025f2:	47e1                	li	a5,24
    800025f4:	00e7e463          	bltu	a5,a4,800025fc <mm_cb+0x4ac>
    800025f8:	79a0106f          	j	80003d92 <mm_cb+0x1c42>
    800025fc:	02fc57b3          	divu	a5,s8,a5
    80002600:	ea843703          	ld	a4,-344(s0)
    80002604:	4281                	li	t0,0
    80002606:	db843423          	sd	s8,-600(s0)
    8000260a:	9776                	add	a4,a4,t4
    8000260c:	e8e43823          	sd	a4,-368(s0)
    80002610:	e3843703          	ld	a4,-456(s0)
    80002614:	8c52                	mv	s8,s4
    80002616:	8d5a                	mv	s10,s6
    80002618:	eee43023          	sd	a4,-288(s0)
    8000261c:	8b6e                	mv	s6,s11
    8000261e:	8316                	mv	t1,t0
    80002620:	8af6                	mv	s5,t4
    80002622:	8a4e                	mv	s4,s3
    80002624:	03b78733          	mul	a4,a5,s11
    80002628:	8dca                	mv	s11,s2
    8000262a:	e2e43023          	sd	a4,-480(s0)
    8000262e:	e8843703          	ld	a4,-376(s0)
    80002632:	02e787b3          	mul	a5,a5,a4
    80002636:	ecf43023          	sd	a5,-320(s0)
    8000263a:	f1843783          	ld	a5,-232(s0)
    8000263e:	48078063          	beqz	a5,80002abe <mm_cb+0x96e>
    80002642:	47e5                	li	a5,25
    80002644:	02f350b3          	divu	ra,t1,a5
    80002648:	ec043783          	ld	a5,-320(s0)
    8000264c:	d8943023          	sd	s1,-640(s0)
    80002650:	4901                	li	s2,0
    80002652:	db643023          	sd	s6,-608(s0)
    80002656:	d8643c23          	sd	t1,-616(s0)
    8000265a:	d9443823          	sd	s4,-624(s0)
    8000265e:	d9543423          	sd	s5,-632(s0)
    80002662:	00f089b3          	add	s3,ra,a5
    80002666:	6785                	lui	a5,0x1
    80002668:	2c078713          	addi	a4,a5,704 # 12c0 <buflen.1+0x1240>
    8000266c:	02e989b3          	mul	s3,s3,a4
    80002670:	ee843703          	ld	a4,-280(s0)
    80002674:	8486                	mv	s1,ra
    80002676:	99ba                	add	s3,s3,a4
    80002678:	2c078713          	addi	a4,a5,704
    8000267c:	974e                	add	a4,a4,s3
    8000267e:	e0e43c23          	sd	a4,-488(s0)
    80002682:	38878793          	addi	a5,a5,904
    80002686:	0c898713          	addi	a4,s3,200
    8000268a:	dee43023          	sd	a4,-544(s0)
    8000268e:	99be                	add	s3,s3,a5
    80002690:	47e1                	li	a5,24
    80002692:	02f957b3          	divu	a5,s2,a5
    80002696:	e8843703          	ld	a4,-376(s0)
    8000269a:	de043b03          	ld	s6,-544(s0)
    8000269e:	d6943823          	sd	s1,-656(s0)
    800026a2:	02e78eb3          	mul	t4,a5,a4
    800026a6:	e2043703          	ld	a4,-480(s0)
    800026aa:	97ba                	add	a5,a5,a4
    800026ac:	00379693          	slli	a3,a5,0x3
    800026b0:	96be                	add	a3,a3,a5
    800026b2:	e7843783          	ld	a5,-392(s0)
    800026b6:	06a6                	slli	a3,a3,0x9
    800026b8:	96be                	add	a3,a3,a5
    800026ba:	6785                	lui	a5,0x1
    800026bc:	9ea6                	add	t4,t4,s1
    800026be:	2c078793          	addi	a5,a5,704 # 12c0 <buflen.1+0x1240>
    800026c2:	02fe8eb3          	mul	t4,t4,a5
    800026c6:	e7043783          	ld	a5,-400(s0)
    800026ca:	0c068593          	addi	a1,a3,192
    800026ce:	d6d43c23          	sd	a3,-648(s0)
    800026d2:	84da                	mv	s1,s6
    800026d4:	01d78a33          	add	s4,a5,t4
    800026d8:	0c8a0a93          	addi	s5,s4,200
    800026dc:	87d6                	mv	a5,s5
    800026de:	8aca                	mv	s5,s2
    800026e0:	893e                	mv	s2,a5
    800026e2:	f4058693          	addi	a3,a1,-192
    800026e6:	f3848613          	addi	a2,s1,-200
    800026ea:	8552                	mv	a0,s4
    800026ec:	2218                	fld	fa4,0(a2)
    800026ee:	00863287          	fld	ft5,8(a2) # ffffffffffffe008 <__global_pointer$+0xffffffff7fff8848>
    800026f2:	01063207          	fld	ft4,16(a2)
    800026f6:	01863187          	fld	ft3,24(a2)
    800026fa:	320c                	fld	fa1,32(a2)
    800026fc:	0c863b07          	fld	fs6,200(a2)
    80002700:	0d063f07          	fld	ft10,208(a2)
    80002704:	0d863e87          	fld	ft9,216(a2)
    80002708:	0e063e07          	fld	ft8,224(a2)
    8000270c:	3670                	fld	fa2,232(a2)
    8000270e:	19063887          	fld	fa7,400(a2)
    80002712:	19863807          	fld	fa6,408(a2)
    80002716:	1a063387          	fld	ft7,416(a2)
    8000271a:	1a863307          	fld	ft6,424(a2)
    8000271e:	1b063687          	fld	fa3,432(a2)
    80002722:	25863107          	fld	ft2,600(a2)
    80002726:	26063087          	fld	ft1,608(a2)
    8000272a:	26863007          	fld	ft0,616(a2)
    8000272e:	27063507          	fld	fa0,624(a2)
    80002732:	27863787          	fld	fa5,632(a2)
    80002736:	87aa                	mv	a5,a0
    80002738:	8b36                	mv	s6,a3
    8000273a:	000b3907          	fld	fs2,0(s6)
    8000273e:	0c0b3487          	fld	fs1,192(s6)
    80002742:	180b3407          	fld	fs0,384(s6)
    80002746:	240b3f87          	fld	ft11,576(s6)
    8000274a:	0007bc07          	fld	fs8,0(a5)
    8000274e:	0087bb87          	fld	fs7,8(a5)
    80002752:	0107ba87          	fld	fs5,16(a5)
    80002756:	0187ba07          	fld	fs4,24(a5)
    8000275a:	0207b987          	fld	fs3,32(a5)
    8000275e:	13fc7143          	fmadd.d	ft2,fs8,ft11,ft2
    80002762:	0bfbf0c3          	fmadd.d	ft1,fs7,ft11,ft1
    80002766:	5b3975c3          	fmadd.d	fa1,fs2,fs3,fa1
    8000276a:	6299f643          	fmadd.d	fa2,fs3,fs1,fa2
    8000276e:	6a89f6c3          	fmadd.d	fa3,fs3,fs0,fa3
    80002772:	03faf043          	fmadd.d	ft0,fs5,ft11,ft0
    80002776:	53fa7543          	fmadd.d	fa0,fs4,ft11,fa0
    8000277a:	73897743          	fmadd.d	fa4,fs2,fs8,fa4
    8000277e:	2b7972c3          	fmadd.d	ft5,fs2,fs7,ft5
    80002782:	23597243          	fmadd.d	ft4,fs2,fs5,ft4
    80002786:	1b4971c3          	fmadd.d	ft3,fs2,fs4,ft3
    8000278a:	b29c7b43          	fmadd.d	fs6,fs8,fs1,fs6
    8000278e:	f29bff43          	fmadd.d	ft10,fs7,fs1,ft10
    80002792:	ea9afec3          	fmadd.d	ft9,fs5,fs1,ft9
    80002796:	e29a7e43          	fmadd.d	ft8,fs4,fs1,ft8
    8000279a:	8a8c78c3          	fmadd.d	fa7,fs8,fs0,fa7
    8000279e:	828bf843          	fmadd.d	fa6,fs7,fs0,fa6
    800027a2:	3a8af3c3          	fmadd.d	ft7,fs5,fs0,ft7
    800027a6:	328a7343          	fmadd.d	ft6,fs4,fs0,ft6
    800027aa:	7bf9f7c3          	fmadd.d	fa5,fs3,ft11,fa5
    800027ae:	248b3b87          	fld	fs7,584(s6)
    800027b2:	008b3487          	fld	fs1,8(s6)
    800027b6:	0c8b3407          	fld	fs0,200(s6)
    800027ba:	188b3f87          	fld	ft11,392(s6)
    800027be:	0e87bc07          	fld	fs8,232(a5)
    800027c2:	0c87ba87          	fld	fs5,200(a5)
    800027c6:	0d07ba07          	fld	fs4,208(a5)
    800027ca:	0d87b987          	fld	fs3,216(a5)
    800027ce:	0e07b907          	fld	fs2,224(a5)
    800027d2:	7354f743          	fmadd.d	fa4,fs1,fs5,fa4
    800027d6:	2334f243          	fmadd.d	ft4,fs1,fs3,ft4
    800027da:	1b24f1c3          	fmadd.d	ft3,fs1,fs2,ft3
    800027de:	2b44f2c3          	fmadd.d	ft5,fs1,fs4,ft5
    800027e2:	b28afb43          	fmadd.d	fs6,fs5,fs0,fs6
    800027e6:	5b84f4c3          	fmadd.d	fs1,fs1,fs8,fa1
    800027ea:	f28a7f43          	fmadd.d	ft10,fs4,fs0,ft10
    800027ee:	ea89fec3          	fmadd.d	ft9,fs3,fs0,ft9
    800027f2:	e2897e43          	fmadd.d	ft8,fs2,fs0,ft8
    800027f6:	8bfaf8c3          	fmadd.d	fa7,fs5,ft11,fa7
    800027fa:	628c7443          	fmadd.d	fs0,fs8,fs0,fa2
    800027fe:	137afac3          	fmadd.d	fs5,fs5,fs7,ft2
    80002802:	83fa7843          	fmadd.d	fa6,fs4,ft11,fa6
    80002806:	3bf9f3c3          	fmadd.d	ft7,fs3,ft11,ft7
    8000280a:	0b7a7a43          	fmadd.d	fs4,fs4,fs7,ft1
    8000280e:	0379f9c3          	fmadd.d	fs3,fs3,fs7,ft0
    80002812:	33f97343          	fmadd.d	ft6,fs2,ft11,ft6
    80002816:	7b7c77c3          	fmadd.d	fa5,fs8,fs7,fa5
    8000281a:	6bfc7fc3          	fmadd.d	ft11,fs8,ft11,fa3
    8000281e:	53797943          	fmadd.d	fs2,fs2,fs7,fa0
    80002822:	250b3c87          	fld	fs9,592(s6)
    80002826:	010b3007          	fld	ft0,16(s6)
    8000282a:	0d0b3507          	fld	fa0,208(s6)
    8000282e:	190b3587          	fld	fa1,400(s6)
    80002832:	1b07bd07          	fld	fs10,432(a5)
    80002836:	1907bc07          	fld	fs8,400(a5)
    8000283a:	1987bb87          	fld	fs7,408(a5)
    8000283e:	1a07b107          	fld	ft2,416(a5)
    80002842:	1a87b087          	fld	ft1,424(a5)
    80002846:	73807743          	fmadd.d	fa4,ft0,fs8,fa4
    8000284a:	22207643          	fmadd.d	fa2,ft0,ft2,ft4
    8000284e:	1a1076c3          	fmadd.d	fa3,ft0,ft1,ft3
    80002852:	2b7072c3          	fmadd.d	ft5,ft0,fs7,ft5
    80002856:	b2ac7b43          	fmadd.d	fs6,fs8,fa0,fs6
    8000285a:	4ba07043          	fmadd.d	ft0,ft0,fs10,fs1
    8000285e:	f2abff43          	fmadd.d	ft10,fs7,fa0,ft10
    80002862:	eaa17ec3          	fmadd.d	ft9,ft2,fa0,ft9
    80002866:	e2a0fe43          	fmadd.d	ft8,ft1,fa0,ft8
    8000286a:	8abc78c3          	fmadd.d	fa7,fs8,fa1,fa7
    8000286e:	42ad7543          	fmadd.d	fa0,fs10,fa0,fs0
    80002872:	ab9c7c43          	fmadd.d	fs8,fs8,fs9,fs5
    80002876:	82bbf843          	fmadd.d	fa6,fs7,fa1,fa6
    8000287a:	3ab173c3          	fmadd.d	ft7,ft2,fa1,ft7
    8000287e:	a39bfbc3          	fmadd.d	fs7,fs7,fs9,fs4
    80002882:	9b917143          	fmadd.d	ft2,ft2,fs9,fs3
    80002886:	32b0f343          	fmadd.d	ft6,ft1,fa1,ft6
    8000288a:	7b9d77c3          	fmadd.d	fa5,fs10,fs9,fa5
    8000288e:	fabd75c3          	fmadd.d	fa1,fs10,fa1,ft11
    80002892:	9390f0c3          	fmadd.d	ft1,ft1,fs9,fs2
    80002896:	018b3f87          	fld	ft11,24(s6)
    8000289a:	2587ba87          	fld	fs5,600(a5)
    8000289e:	2607ba07          	fld	fs4,608(a5)
    800028a2:	2687b987          	fld	fs3,616(a5)
    800028a6:	2707b907          	fld	fs2,624(a5)
    800028aa:	2787b207          	fld	ft4,632(a5)
    800028ae:	258b3187          	fld	ft3,600(s6)
    800028b2:	0d8b3487          	fld	fs1,216(s6)
    800028b6:	198b3407          	fld	fs0,408(s6)
    800028ba:	024ffcc3          	fmadd.d	fs9,ft11,ft4,ft0
    800028be:	633ff643          	fmadd.d	fa2,ft11,fs3,fa2
    800028c2:	6b2ff6c3          	fmadd.d	fa3,ft11,fs2,fa3
    800028c6:	7a3277c3          	fmadd.d	fa5,ft4,ft3,fa5
    800028ca:	735ff743          	fmadd.d	fa4,ft11,fs5,fa4
    800028ce:	2b4ff2c3          	fmadd.d	ft5,ft11,fs4,ft5
    800028d2:	b29afb43          	fmadd.d	fs6,fs5,fs1,fs6
    800028d6:	f29a7f43          	fmadd.d	ft10,fs4,fs1,ft10
    800028da:	ea99fec3          	fmadd.d	ft9,fs3,fs1,ft9
    800028de:	e2997e43          	fmadd.d	ft8,fs2,fs1,ft8
    800028e2:	8a8af8c3          	fmadd.d	fa7,fs5,fs0,fa7
    800028e6:	529274c3          	fmadd.d	fs1,ft4,fs1,fa0
    800028ea:	828a7843          	fmadd.d	fa6,fs4,fs0,fa6
    800028ee:	3a89f3c3          	fmadd.d	ft7,fs3,fs0,ft7
    800028f2:	32897343          	fmadd.d	ft6,fs2,fs0,ft6
    800028f6:	c23afac3          	fmadd.d	fs5,fs5,ft3,fs8
    800028fa:	5a827443          	fmadd.d	fs0,ft4,fs0,fa1
    800028fe:	ba3a7a43          	fmadd.d	fs4,fs4,ft3,fs7
    80002902:	1239f9c3          	fmadd.d	fs3,fs3,ft3,ft2
    80002906:	0a397943          	fmadd.d	fs2,fs2,ft3,ft1
    8000290a:	0e0b3007          	fld	ft0,224(s6)
    8000290e:	1a0b3507          	fld	fa0,416(s6)
    80002912:	260b3587          	fld	fa1,608(s6)
    80002916:	020b3f87          	fld	ft11,32(s6)
    8000291a:	3307bb87          	fld	fs7,816(a5)
    8000291e:	3387b107          	fld	ft2,824(a5)
    80002922:	3407b087          	fld	ft1,832(a5)
    80002926:	3207bd07          	fld	fs10,800(a5)
    8000292a:	3287bc07          	fld	fs8,808(a5)
    8000292e:	637ff243          	fmadd.d	ft4,ft11,fs7,fa2
    80002932:	6a2ff1c3          	fmadd.d	ft3,ft11,ft2,fa3
    80002936:	ea0bfec3          	fmadd.d	ft9,fs7,ft0,ft9
    8000293a:	e2017e43          	fmadd.d	ft8,ft2,ft0,ft8
    8000293e:	4a00f4c3          	fmadd.d	fs1,ft1,ft0,fs1
    80002942:	3aabf3c3          	fmadd.d	ft7,fs7,fa0,ft7
    80002946:	32a17343          	fmadd.d	ft6,ft2,fa0,ft6
    8000294a:	9abbf9c3          	fmadd.d	fs3,fs7,fa1,fs3
    8000294e:	92b17943          	fmadd.d	fs2,ft2,fa1,fs2
    80002952:	7ab0fbc3          	fmadd.d	fs7,ft1,fa1,fa5
    80002956:	73aff743          	fmadd.d	fa4,ft11,fs10,fa4
    8000295a:	2b8ff2c3          	fmadd.d	ft5,ft11,fs8,ft5
    8000295e:	b20d7b43          	fmadd.d	fs6,fs10,ft0,fs6
    80002962:	ca1fffc3          	fmadd.d	ft11,ft11,ft1,fs9
    80002966:	f20c7f43          	fmadd.d	ft10,fs8,ft0,ft10
    8000296a:	42a0fcc3          	fmadd.d	fs9,ft1,fa0,fs0
    8000296e:	8aad78c3          	fmadd.d	fa7,fs10,fa0,fa7
    80002972:	82ac7843          	fmadd.d	fa6,fs8,fa0,fa6
    80002976:	aabd7ac3          	fmadd.d	fs5,fs10,fa1,fs5
    8000297a:	a2bc7a43          	fmadd.d	fs4,fs8,fa1,fs4
    8000297e:	0e8b3607          	fld	fa2,232(s6)
    80002982:	028b3587          	fld	fa1,40(s6)
    80002986:	1a8b3687          	fld	fa3,424(s6)
    8000298a:	268b3407          	fld	fs0,616(s6)
    8000298e:	3e87b107          	fld	ft2,1000(a5)
    80002992:	3f07b087          	fld	ft1,1008(a5)
    80002996:	3f87b007          	fld	ft0,1016(a5)
    8000299a:	4007b507          	fld	fa0,1024(a5)
    8000299e:	4087b787          	fld	fa5,1032(a5)
    800029a2:	030b0b13          	addi	s6,s6,48
    800029a6:	7225f743          	fmadd.d	fa4,fa1,ft2,fa4
    800029aa:	2a15f2c3          	fmadd.d	ft5,fa1,ft1,ft5
    800029ae:	2205f243          	fmadd.d	ft4,fa1,ft0,ft4
    800029b2:	1aa5f1c3          	fmadd.d	ft3,fa1,fa0,ft3
    800029b6:	b2c17b43          	fmadd.d	fs6,ft2,fa2,fs6
    800029ba:	f2c0ff43          	fmadd.d	ft10,ft1,fa2,ft10
    800029be:	eac07ec3          	fmadd.d	ft9,ft0,fa2,ft9
    800029c2:	e2c57e43          	fmadd.d	ft8,fa0,fa2,ft8
    800029c6:	8ad178c3          	fmadd.d	fa7,ft2,fa3,fa7
    800029ca:	82d0f843          	fmadd.d	fa6,ft1,fa3,fa6
    800029ce:	3ad073c3          	fmadd.d	ft7,ft0,fa3,ft7
    800029d2:	32d57343          	fmadd.d	ft6,fa0,fa3,ft6
    800029d6:	faf5f5c3          	fmadd.d	fa1,fa1,fa5,ft11
    800029da:	4ac7f643          	fmadd.d	fa2,fa5,fa2,fs1
    800029de:	cad7f6c3          	fmadd.d	fa3,fa5,fa3,fs9
    800029e2:	aa817143          	fmadd.d	ft2,ft2,fs0,fs5
    800029e6:	a280f0c3          	fmadd.d	ft1,ft1,fs0,fs4
    800029ea:	9a807043          	fmadd.d	ft0,ft0,fs0,fs3
    800029ee:	92857543          	fmadd.d	fa0,fa0,fs0,fs2
    800029f2:	ba87f7c3          	fmadd.d	fa5,fa5,fs0,fs7
    800029f6:	4b078793          	addi	a5,a5,1200
    800029fa:	d4bb10e3          	bne	s6,a1,8000273a <mm_cb+0x5ea>
    800029fe:	a218                	fsd	fa4,0(a2)
    80002a00:	00563427          	fsd	ft5,8(a2)
    80002a04:	00463827          	fsd	ft4,16(a2)
    80002a08:	00363c27          	fsd	ft3,24(a2)
    80002a0c:	b20c                	fsd	fa1,32(a2)
    80002a0e:	0d663427          	fsd	fs6,200(a2)
    80002a12:	0de63827          	fsd	ft10,208(a2)
    80002a16:	0dd63c27          	fsd	ft9,216(a2)
    80002a1a:	0fc63027          	fsd	ft8,224(a2)
    80002a1e:	b670                	fsd	fa2,232(a2)
    80002a20:	19163827          	fsd	fa7,400(a2)
    80002a24:	19063c27          	fsd	fa6,408(a2)
    80002a28:	1a763027          	fsd	ft7,416(a2)
    80002a2c:	1a663427          	fsd	ft6,424(a2)
    80002a30:	1ad63827          	fsd	fa3,432(a2)
    80002a34:	24263c27          	fsd	ft2,600(a2)
    80002a38:	26163027          	fsd	ft1,608(a2)
    80002a3c:	26063427          	fsd	ft0,616(a2)
    80002a40:	26a63827          	fsd	fa0,624(a2)
    80002a44:	26f63c27          	fsd	fa5,632(a2)
    80002a48:	02850513          	addi	a0,a0,40
    80002a4c:	02860613          	addi	a2,a2,40
    80002a50:	c8a91ee3          	bne	s2,a0,800026ec <mm_cb+0x59c>
    80002a54:	47e5                	li	a5,25
    80002a56:	88a6                	mv	a7,s1
    80002a58:	e03e                	sd	a5,0(sp)
    80002a5a:	4581                	li	a1,0
    80002a5c:	4865                	li	a6,25
    80002a5e:	87ca                	mv	a5,s2
    80002a60:	4761                	li	a4,24
    80002a62:	4661                	li	a2,24
    80002a64:	4511                	li	a0,4
    80002a66:	d9aff0ef          	jal	ra,80002000 <mm_naive>
    80002a6a:	32048493          	addi	s1,s1,800
    80002a6e:	300b0593          	addi	a1,s6,768
    80002a72:	c69998e3          	bne	s3,s1,800026e2 <mm_cb+0x592>
    80002a76:	47e5                	li	a5,25
    80002a78:	d7843683          	ld	a3,-648(s0)
    80002a7c:	d7043483          	ld	s1,-656(s0)
    80002a80:	e03e                	sd	a5,0(sp)
    80002a82:	e1843883          	ld	a7,-488(s0)
    80002a86:	6605                	lui	a2,0x1
    80002a88:	20060613          	addi	a2,a2,512 # 1200 <buflen.1+0x1180>
    80002a8c:	87d2                	mv	a5,s4
    80002a8e:	96b2                	add	a3,a3,a2
    80002a90:	4865                	li	a6,25
    80002a92:	4761                	li	a4,24
    80002a94:	4661                	li	a2,24
    80002a96:	45e5                	li	a1,25
    80002a98:	4501                	li	a0,0
    80002a9a:	d66ff0ef          	jal	ra,80002000 <mm_naive>
    80002a9e:	f1843783          	ld	a5,-232(s0)
    80002aa2:	018a8913          	addi	s2,s5,24
    80002aa6:	bef965e3          	bltu	s2,a5,80002690 <mm_cb+0x540>
    80002aaa:	da043b03          	ld	s6,-608(s0)
    80002aae:	d9843303          	ld	t1,-616(s0)
    80002ab2:	d9043a03          	ld	s4,-624(s0)
    80002ab6:	d8843a83          	ld	s5,-632(s0)
    80002aba:	d8043483          	ld	s1,-640(s0)
    80002abe:	ee043783          	ld	a5,-288(s0)
    80002ac2:	f1843703          	ld	a4,-232(s0)
    80002ac6:	0c878f13          	addi	t5,a5,200
    80002aca:	f2043783          	ld	a5,-224(s0)
    80002ace:	5af76fe3          	bltu	a4,a5,8000388c <mm_cb+0x173c>
    80002ad2:	f0843783          	ld	a5,-248(s0)
    80002ad6:	0365                	addi	t1,t1,25
    80002ad8:	efe43023          	sd	t5,-288(s0)
    80002adc:	b4f36fe3          	bltu	t1,a5,8000263a <mm_cb+0x4ea>
    80002ae0:	e8043783          	ld	a5,-384(s0)
    80002ae4:	f0843703          	ld	a4,-248(s0)
    80002ae8:	89d2                	mv	s3,s4
    80002aea:	896e                	mv	s2,s11
    80002aec:	8a62                	mv	s4,s8
    80002aee:	8dda                	mv	s11,s6
    80002af0:	da843c03          	ld	s8,-600(s0)
    80002af4:	8ed6                	mv	t4,s5
    80002af6:	8b6a                	mv	s6,s10
    80002af8:	00f76463          	bltu	a4,a5,80002b00 <mm_cb+0x9b0>
    80002afc:	2b00106f          	j	80003dac <mm_cb+0x1c5c>
    80002b00:	f2043783          	ld	a5,-224(s0)
    80002b04:	e399                	bnez	a5,80002b0a <mm_cb+0x9ba>
    80002b06:	2a60106f          	j	80003dac <mm_cb+0x1c5c>
    80002b0a:	ed843783          	ld	a5,-296(s0)
    80002b0e:	f0043703          	ld	a4,-256(s0)
    80002b12:	4f01                	li	t5,0
    80002b14:	dfb43023          	sd	s11,-544(s0)
    80002b18:	00e788b3          	add	a7,a5,a4
    80002b1c:	df043783          	ld	a5,-528(s0)
    80002b20:	db843423          	sd	s8,-600(s0)
    80002b24:	e3143023          	sd	a7,-480(s0)
    80002b28:	40fe8eb3          	sub	t4,t4,a5
    80002b2c:	dd043783          	ld	a5,-560(s0)
    80002b30:	8d76                	mv	s10,t4
    80002b32:	eef43023          	sd	a5,-288(s0)
    80002b36:	f2043783          	ld	a5,-224(s0)
    80002b3a:	41e78633          	sub	a2,a5,t5
    80002b3e:	47e1                	li	a5,24
    80002b40:	00c7f363          	bgeu	a5,a2,80002b46 <mm_cb+0x9f6>
    80002b44:	4661                	li	a2,24
    80002b46:	4799                	li	a5,6
    80002b48:	02f65733          	divu	a4,a2,a5
    80002b4c:	ee043683          	ld	a3,-288(s0)
    80002b50:	e3043783          	ld	a5,-464(s0)
    80002b54:	4319                	li	t1,6
    80002b56:	f0043d83          	ld	s11,-256(s0)
    80002b5a:	00361c13          	slli	s8,a2,0x3
    80002b5e:	97b6                	add	a5,a5,a3
    80002b60:	9c6a                	add	s8,s8,s10
    80002b62:	86ea                	mv	a3,s10
    80002b64:	e0c43c23          	sd	a2,-488(s0)
    80002b68:	8e7a                	mv	t3,t5
    80002b6a:	00171a93          	slli	s5,a4,0x1
    80002b6e:	9aba                	add	s5,s5,a4
    80002b70:	02e90733          	mul	a4,s2,a4
    80002b74:	0a92                	slli	s5,s5,0x4
    80002b76:	9aea                	add	s5,s5,s10
    80002b78:	ece43023          	sd	a4,-320(s0)
    80002b7c:	871a                	mv	a4,t1
    80002b7e:	836a                	mv	t1,s10
    80002b80:	8d3a                	mv	s10,a4
    80002b82:	e6843703          	ld	a4,-408(s0)
    80002b86:	4611                	li	a2,4
    80002b88:	44e67463          	bgeu	a2,a4,80002fd0 <mm_cb+0xe80>
    80002b8c:	f1043703          	ld	a4,-240(s0)
    80002b90:	ee043383          	ld	t2,-288(s0)
    80002b94:	8fee                	mv	t6,s11
    80002b96:	01b70f33          	add	t5,a4,s11
    80002b9a:	01e70eb3          	add	t4,a4,t5
    80002b9e:	01d702b3          	add	t0,a4,t4
    80002ba2:	4081                	li	ra,0
    80002ba4:	000fb287          	fld	ft5,0(t6)
    80002ba8:	008fb207          	fld	ft4,8(t6)
    80002bac:	010fb187          	fld	ft3,16(t6)
    80002bb0:	018fb107          	fld	ft2,24(t6)
    80002bb4:	020fb687          	fld	fa3,32(t6)
    80002bb8:	000f3f87          	fld	ft11,0(t5)
    80002bbc:	008f3f07          	fld	ft10,8(t5)
    80002bc0:	010f3e87          	fld	ft9,16(t5)
    80002bc4:	018f3e07          	fld	ft8,24(t5)
    80002bc8:	020f3707          	fld	fa4,32(t5)
    80002bcc:	000eb887          	fld	fa7,0(t4)
    80002bd0:	008eb807          	fld	fa6,8(t4)
    80002bd4:	010eb387          	fld	ft7,16(t4)
    80002bd8:	018eb307          	fld	ft6,24(t4)
    80002bdc:	020eb787          	fld	fa5,32(t4)
    80002be0:	0002b087          	fld	ft1,0(t0)
    80002be4:	0082b007          	fld	ft0,8(t0)
    80002be8:	0102b507          	fld	fa0,16(t0)
    80002bec:	0182b587          	fld	fa1,24(t0)
    80002bf0:	0202b607          	fld	fa2,32(t0)
    80002bf4:	871e                	mv	a4,t2
    80002bf6:	2d56fd63          	bgeu	a3,s5,80002ed0 <mm_cb+0xd80>
    80002bfa:	00d48533          	add	a0,s1,a3
    80002bfe:	00a485b3          	add	a1,s1,a0
    80002c02:	00b48833          	add	a6,s1,a1
    80002c06:	8636                	mv	a2,a3
    80002c08:	00063c07          	fld	fs8,0(a2)
    80002c0c:	00053b87          	fld	fs7,0(a0)
    80002c10:	0005bb07          	fld	fs6,0(a1)
    80002c14:	00083407          	fld	fs0,0(a6)
    80002c18:	00073a87          	fld	fs5,0(a4)
    80002c1c:	00873a07          	fld	fs4,8(a4)
    80002c20:	01073987          	fld	fs3,16(a4)
    80002c24:	01873907          	fld	fs2,24(a4)
    80002c28:	3304                	fld	fs1,32(a4)
    80002c2a:	0a8af0c3          	fmadd.d	ft1,fs5,fs0,ft1
    80002c2e:	028a7043          	fmadd.d	ft0,fs4,fs0,ft0
    80002c32:	6a9c76c3          	fmadd.d	fa3,fs8,fs1,fa3
    80002c36:	7374f743          	fmadd.d	fa4,fs1,fs7,fa4
    80002c3a:	7b64f7c3          	fmadd.d	fa5,fs1,fs6,fa5
    80002c3e:	5289f543          	fmadd.d	fa0,fs3,fs0,fa0
    80002c42:	5a8975c3          	fmadd.d	fa1,fs2,fs0,fa1
    80002c46:	6284f643          	fmadd.d	fa2,fs1,fs0,fa2
    80002c4a:	2b5c72c3          	fmadd.d	ft5,fs8,fs5,ft5
    80002c4e:	234c7243          	fmadd.d	ft4,fs8,fs4,ft4
    80002c52:	1b3c71c3          	fmadd.d	ft3,fs8,fs3,ft3
    80002c56:	132c7143          	fmadd.d	ft2,fs8,fs2,ft2
    80002c5a:	fb7affc3          	fmadd.d	ft11,fs5,fs7,ft11
    80002c5e:	f37a7f43          	fmadd.d	ft10,fs4,fs7,ft10
    80002c62:	eb79fec3          	fmadd.d	ft9,fs3,fs7,ft9
    80002c66:	e3797e43          	fmadd.d	ft8,fs2,fs7,ft8
    80002c6a:	8b6af8c3          	fmadd.d	fa7,fs5,fs6,fa7
    80002c6e:	836a7843          	fmadd.d	fa6,fs4,fs6,fa6
    80002c72:	3b69f3c3          	fmadd.d	ft7,fs3,fs6,ft7
    80002c76:	33697343          	fmadd.d	ft6,fs2,fs6,ft6
    80002c7a:	017708b3          	add	a7,a4,s7
    80002c7e:	00883c07          	fld	fs8,8(a6)
    80002c82:	00863907          	fld	fs2,8(a2)
    80002c86:	2504                	fld	fs1,8(a0)
    80002c88:	2580                	fld	fs0,8(a1)
    80002c8a:	0008bb87          	fld	fs7,0(a7)
    80002c8e:	0088bb07          	fld	fs6,8(a7)
    80002c92:	0108ba87          	fld	fs5,16(a7)
    80002c96:	0188ba07          	fld	fs4,24(a7)
    80002c9a:	0208b987          	fld	fs3,32(a7)
    80002c9e:	2b7972c3          	fmadd.d	ft5,fs2,fs7,ft5
    80002ca2:	23697243          	fmadd.d	ft4,fs2,fs6,ft4
    80002ca6:	1b5971c3          	fmadd.d	ft3,fs2,fs5,ft3
    80002caa:	13497143          	fmadd.d	ft2,fs2,fs4,ft2
    80002cae:	fa9bffc3          	fmadd.d	ft11,fs7,fs1,ft11
    80002cb2:	6b397943          	fmadd.d	fs2,fs2,fs3,fa3
    80002cb6:	f29b7f43          	fmadd.d	ft10,fs6,fs1,ft10
    80002cba:	ea9afec3          	fmadd.d	ft9,fs5,fs1,ft9
    80002cbe:	e29a7e43          	fmadd.d	ft8,fs4,fs1,ft8
    80002cc2:	8a8bf8c3          	fmadd.d	fa7,fs7,fs0,fa7
    80002cc6:	7299f4c3          	fmadd.d	fs1,fs3,fs1,fa4
    80002cca:	0b8bfbc3          	fmadd.d	fs7,fs7,fs8,ft1
    80002cce:	828b7843          	fmadd.d	fa6,fs6,fs0,fa6
    80002cd2:	3a8af3c3          	fmadd.d	ft7,fs5,fs0,ft7
    80002cd6:	038b7b43          	fmadd.d	fs6,fs6,fs8,ft0
    80002cda:	538afac3          	fmadd.d	fs5,fs5,fs8,fa0
    80002cde:	328a7343          	fmadd.d	ft6,fs4,fs0,ft6
    80002ce2:	7a89f443          	fmadd.d	fs0,fs3,fs0,fa5
    80002ce6:	5b8a7a43          	fmadd.d	fs4,fs4,fs8,fa1
    80002cea:	6389f9c3          	fmadd.d	fs3,fs3,fs8,fa2
    80002cee:	00e988b3          	add	a7,s3,a4
    80002cf2:	2a10                	fld	fa2,16(a2)
    80002cf4:	2914                	fld	fa3,16(a0)
    80002cf6:	299c                	fld	fa5,16(a1)
    80002cf8:	01083c87          	fld	fs9,16(a6)
    80002cfc:	0008bc07          	fld	fs8,0(a7)
    80002d00:	0088b087          	fld	ft1,8(a7)
    80002d04:	0108b007          	fld	ft0,16(a7)
    80002d08:	0188b507          	fld	fa0,24(a7)
    80002d0c:	0208b587          	fld	fa1,32(a7)
    80002d10:	2b8672c3          	fmadd.d	ft5,fa2,fs8,ft5
    80002d14:	22167243          	fmadd.d	ft4,fa2,ft1,ft4
    80002d18:	1a0671c3          	fmadd.d	ft3,fa2,ft0,ft3
    80002d1c:	12a67143          	fmadd.d	ft2,fa2,fa0,ft2
    80002d20:	fadc7fc3          	fmadd.d	ft11,fs8,fa3,ft11
    80002d24:	92b67643          	fmadd.d	fa2,fa2,fa1,fs2
    80002d28:	f2d0ff43          	fmadd.d	ft10,ft1,fa3,ft10
    80002d2c:	ead07ec3          	fmadd.d	ft9,ft0,fa3,ft9
    80002d30:	e2d57e43          	fmadd.d	ft8,fa0,fa3,ft8
    80002d34:	8afc78c3          	fmadd.d	fa7,fs8,fa5,fa7
    80002d38:	4ad5f6c3          	fmadd.d	fa3,fa1,fa3,fs1
    80002d3c:	bb9c7c43          	fmadd.d	fs8,fs8,fs9,fs7
    80002d40:	82f0f843          	fmadd.d	fa6,ft1,fa5,fa6
    80002d44:	3af073c3          	fmadd.d	ft7,ft0,fa5,ft7
    80002d48:	b390f0c3          	fmadd.d	ft1,ft1,fs9,fs6
    80002d4c:	ab907043          	fmadd.d	ft0,ft0,fs9,fs5
    80002d50:	32f57343          	fmadd.d	ft6,fa0,fa5,ft6
    80002d54:	42f5f7c3          	fmadd.d	fa5,fa1,fa5,fs0
    80002d58:	a3957543          	fmadd.d	fa0,fa0,fs9,fs4
    80002d5c:	9b95f5c3          	fmadd.d	fa1,fa1,fs9,fs3
    80002d60:	014708b3          	add	a7,a4,s4
    80002d64:	01863987          	fld	fs3,24(a2)
    80002d68:	0008bb87          	fld	fs7,0(a7)
    80002d6c:	0088bb07          	fld	fs6,8(a7)
    80002d70:	0108ba87          	fld	fs5,16(a7)
    80002d74:	0188ba07          	fld	fs4,24(a7)
    80002d78:	0208bc87          	fld	fs9,32(a7)
    80002d7c:	01853907          	fld	fs2,24(a0)
    80002d80:	2d84                	fld	fs1,24(a1)
    80002d82:	01883407          	fld	fs0,24(a6)
    80002d86:	2b79f743          	fmadd.d	fa4,fs3,fs7,ft5
    80002d8a:	2369f243          	fmadd.d	ft4,fs3,fs6,ft4
    80002d8e:	1b59f1c3          	fmadd.d	ft3,fs3,fs5,ft3
    80002d92:	1349f143          	fmadd.d	ft2,fs3,fs4,ft2
    80002d96:	fb2bffc3          	fmadd.d	ft11,fs7,fs2,ft11
    80002d9a:	6399f9c3          	fmadd.d	fs3,fs3,fs9,fa2
    80002d9e:	f32b7f43          	fmadd.d	ft10,fs6,fs2,ft10
    80002da2:	eb2afec3          	fmadd.d	ft9,fs5,fs2,ft9
    80002da6:	e32a7e43          	fmadd.d	ft8,fs4,fs2,ft8
    80002daa:	8a9bf8c3          	fmadd.d	fa7,fs7,fs1,fa7
    80002dae:	6b2cf943          	fmadd.d	fs2,fs9,fs2,fa3
    80002db2:	829b7843          	fmadd.d	fa6,fs6,fs1,fa6
    80002db6:	3a9af3c3          	fmadd.d	ft7,fs5,fs1,ft7
    80002dba:	329a7343          	fmadd.d	ft6,fs4,fs1,ft6
    80002dbe:	c28bfbc3          	fmadd.d	fs7,fs7,fs0,fs8
    80002dc2:	7a9cf4c3          	fmadd.d	fs1,fs9,fs1,fa5
    80002dc6:	0a8b7b43          	fmadd.d	fs6,fs6,fs0,ft1
    80002dca:	028afac3          	fmadd.d	fs5,fs5,fs0,ft0
    80002dce:	528a7a43          	fmadd.d	fs4,fs4,fs0,fa0
    80002dd2:	5a8cf443          	fmadd.d	fs0,fs9,fs0,fa1
    80002dd6:	00ec88b3          	add	a7,s9,a4
    80002dda:	310c                	fld	fa1,32(a0)
    80002ddc:	3190                	fld	fa2,32(a1)
    80002dde:	02083687          	fld	fa3,32(a6)
    80002de2:	321c                	fld	fa5,32(a2)
    80002de4:	0088bc07          	fld	fs8,8(a7)
    80002de8:	0108b087          	fld	ft1,16(a7)
    80002dec:	0188b007          	fld	ft0,24(a7)
    80002df0:	0208b507          	fld	fa0,32(a7)
    80002df4:	0008bc87          	fld	fs9,0(a7)
    80002df8:	2387f243          	fmadd.d	ft4,fa5,fs8,ft4
    80002dfc:	1a17f1c3          	fmadd.d	ft3,fa5,ft1,ft3
    80002e00:	7397f2c3          	fmadd.d	ft5,fa5,fs9,fa4
    80002e04:	1207f143          	fmadd.d	ft2,fa5,ft0,ft2
    80002e08:	f2bc7f43          	fmadd.d	ft10,fs8,fa1,ft10
    80002e0c:	9aa7f7c3          	fmadd.d	fa5,fa5,fa0,fs3
    80002e10:	eab0fec3          	fmadd.d	ft9,ft1,fa1,ft9
    80002e14:	4ac579c3          	fmadd.d	fs3,fa0,fa2,fs1
    80002e18:	e2b07e43          	fmadd.d	ft8,ft0,fa1,ft8
    80002e1c:	92b57943          	fmadd.d	fs2,fa0,fa1,fs2
    80002e20:	82cc7843          	fmadd.d	fa6,fs8,fa2,fa6
    80002e24:	3ac0f3c3          	fmadd.d	ft7,ft1,fa2,ft7
    80002e28:	32c07343          	fmadd.d	ft6,ft0,fa2,ft6
    80002e2c:	b2dc7b43          	fmadd.d	fs6,fs8,fa3,fs6
    80002e30:	aad0fac3          	fmadd.d	fs5,ft1,fa3,fs5
    80002e34:	42d57c43          	fmadd.d	fs8,fa0,fa3,fs0
    80002e38:	a2d07a43          	fmadd.d	fs4,ft0,fa3,fs4
    80002e3c:	fabcffc3          	fmadd.d	ft11,fs9,fa1,ft11
    80002e40:	8accf8c3          	fmadd.d	fa7,fs9,fa2,fa7
    80002e44:	badcfbc3          	fmadd.d	fs7,fs9,fa3,fs7
    80002e48:	016708b3          	add	a7,a4,s6
    80002e4c:	3614                	fld	fa3,40(a2)
    80002e4e:	3518                	fld	fa4,40(a0)
    80002e50:	3584                	fld	fs1,40(a1)
    80002e52:	02883407          	fld	fs0,40(a6)
    80002e56:	0008b087          	fld	ft1,0(a7)
    80002e5a:	0088b007          	fld	ft0,8(a7)
    80002e5e:	0108b507          	fld	fa0,16(a7)
    80002e62:	0188b587          	fld	fa1,24(a7)
    80002e66:	0208b607          	fld	fa2,32(a7)
    80002e6a:	03060613          	addi	a2,a2,48
    80002e6e:	2a16f2c3          	fmadd.d	ft5,fa3,ft1,ft5
    80002e72:	2206f243          	fmadd.d	ft4,fa3,ft0,ft4
    80002e76:	1aa6f1c3          	fmadd.d	ft3,fa3,fa0,ft3
    80002e7a:	12b6f143          	fmadd.d	ft2,fa3,fa1,ft2
    80002e7e:	fae0ffc3          	fmadd.d	ft11,ft1,fa4,ft11
    80002e82:	7ac6f6c3          	fmadd.d	fa3,fa3,fa2,fa5
    80002e86:	f2e07f43          	fmadd.d	ft10,ft0,fa4,ft10
    80002e8a:	eae57ec3          	fmadd.d	ft9,fa0,fa4,ft9
    80002e8e:	e2e5fe43          	fmadd.d	ft8,fa1,fa4,ft8
    80002e92:	8a90f8c3          	fmadd.d	fa7,ft1,fs1,fa7
    80002e96:	92e67743          	fmadd.d	fa4,fa2,fa4,fs2
    80002e9a:	82907843          	fmadd.d	fa6,ft0,fs1,fa6
    80002e9e:	3a9573c3          	fmadd.d	ft7,fa0,fs1,ft7
    80002ea2:	3295f343          	fmadd.d	ft6,fa1,fs1,ft6
    80002ea6:	9a9677c3          	fmadd.d	fa5,fa2,fs1,fs3
    80002eaa:	ba80f0c3          	fmadd.d	ft1,ft1,fs0,fs7
    80002eae:	b2807043          	fmadd.d	ft0,ft0,fs0,fs6
    80002eb2:	aa857543          	fmadd.d	fa0,fa0,fs0,fs5
    80002eb6:	a285f5c3          	fmadd.d	fa1,fa1,fs0,fs4
    80002eba:	c2867643          	fmadd.d	fa2,fa2,fs0,fs8
    80002ebe:	974a                	add	a4,a4,s2
    80002ec0:	03050513          	addi	a0,a0,48
    80002ec4:	03058593          	addi	a1,a1,48
    80002ec8:	03080813          	addi	a6,a6,48
    80002ecc:	d3566ee3          	bltu	a2,s5,80002c08 <mm_cb+0xab8>
    80002ed0:	ec043703          	ld	a4,-320(s0)
    80002ed4:	971e                	add	a4,a4,t2
    80002ed6:	098af663          	bgeu	s5,s8,80002f62 <mm_cb+0xe12>
    80002eda:	8656                	mv	a2,s5
    80002edc:	00960533          	add	a0,a2,s1
    80002ee0:	009505b3          	add	a1,a0,s1
    80002ee4:	00958833          	add	a6,a1,s1
    80002ee8:	00063987          	fld	fs3,0(a2)
    80002eec:	00073c07          	fld	fs8,0(a4)
    80002ef0:	00873b87          	fld	fs7,8(a4)
    80002ef4:	01073b07          	fld	fs6,16(a4)
    80002ef8:	01873a87          	fld	fs5,24(a4)
    80002efc:	02073a07          	fld	fs4,32(a4)
    80002f00:	00053907          	fld	fs2,0(a0)
    80002f04:	2184                	fld	fs1,0(a1)
    80002f06:	00083407          	fld	fs0,0(a6)
    80002f0a:	0621                	addi	a2,a2,8
    80002f0c:	2b89f2c3          	fmadd.d	ft5,fs3,fs8,ft5
    80002f10:	2379f243          	fmadd.d	ft4,fs3,fs7,ft4
    80002f14:	1b69f1c3          	fmadd.d	ft3,fs3,fs6,ft3
    80002f18:	1359f143          	fmadd.d	ft2,fs3,fs5,ft2
    80002f1c:	6b49f6c3          	fmadd.d	fa3,fs3,fs4,fa3
    80002f20:	fb2c7fc3          	fmadd.d	ft11,fs8,fs2,ft11
    80002f24:	f32bff43          	fmadd.d	ft10,fs7,fs2,ft10
    80002f28:	eb2b7ec3          	fmadd.d	ft9,fs6,fs2,ft9
    80002f2c:	e32afe43          	fmadd.d	ft8,fs5,fs2,ft8
    80002f30:	732a7743          	fmadd.d	fa4,fs4,fs2,fa4
    80002f34:	8a9c78c3          	fmadd.d	fa7,fs8,fs1,fa7
    80002f38:	829bf843          	fmadd.d	fa6,fs7,fs1,fa6
    80002f3c:	3a9b73c3          	fmadd.d	ft7,fs6,fs1,ft7
    80002f40:	329af343          	fmadd.d	ft6,fs5,fs1,ft6
    80002f44:	7a9a77c3          	fmadd.d	fa5,fs4,fs1,fa5
    80002f48:	0a8c70c3          	fmadd.d	ft1,fs8,fs0,ft1
    80002f4c:	028bf043          	fmadd.d	ft0,fs7,fs0,ft0
    80002f50:	528b7543          	fmadd.d	fa0,fs6,fs0,fa0
    80002f54:	5a8af5c3          	fmadd.d	fa1,fs5,fs0,fa1
    80002f58:	628a7643          	fmadd.d	fa2,fs4,fs0,fa2
    80002f5c:	975e                	add	a4,a4,s7
    80002f5e:	f7866fe3          	bltu	a2,s8,80002edc <mm_cb+0xd8c>
    80002f62:	005fb027          	fsd	ft5,0(t6)
    80002f66:	004fb427          	fsd	ft4,8(t6)
    80002f6a:	003fb827          	fsd	ft3,16(t6)
    80002f6e:	002fbc27          	fsd	ft2,24(t6)
    80002f72:	02dfb027          	fsd	fa3,32(t6)
    80002f76:	01ff3027          	fsd	ft11,0(t5)
    80002f7a:	01ef3427          	fsd	ft10,8(t5)
    80002f7e:	01df3827          	fsd	ft9,16(t5)
    80002f82:	01cf3c27          	fsd	ft8,24(t5)
    80002f86:	02ef3027          	fsd	fa4,32(t5)
    80002f8a:	ec843703          	ld	a4,-312(s0)
    80002f8e:	011eb027          	fsd	fa7,0(t4)
    80002f92:	010eb427          	fsd	fa6,8(t4)
    80002f96:	007eb827          	fsd	ft7,16(t4)
    80002f9a:	006ebc27          	fsd	ft6,24(t4)
    80002f9e:	02feb027          	fsd	fa5,32(t4)
    80002fa2:	0012b027          	fsd	ft1,0(t0)
    80002fa6:	0002b427          	fsd	ft0,8(t0)
    80002faa:	00a2b827          	fsd	fa0,16(t0)
    80002fae:	00b2bc27          	fsd	fa1,24(t0)
    80002fb2:	02c2b027          	fsd	fa2,32(t0)
    80002fb6:	0095                	addi	ra,ra,5
    80002fb8:	028f8f93          	addi	t6,t6,40
    80002fbc:	028f0f13          	addi	t5,t5,40
    80002fc0:	028e8e93          	addi	t4,t4,40
    80002fc4:	02828293          	addi	t0,t0,40
    80002fc8:	02838393          	addi	t2,t2,40
    80002fcc:	bce0ece3          	bltu	ra,a4,80002ba4 <mm_cb+0xa54>
    80002fd0:	e3043703          	ld	a4,-464(s0)
    80002fd4:	d8643423          	sd	t1,-632(s0)
    80002fd8:	d9c43823          	sd	t3,-624(s0)
    80002fdc:	01b708b3          	add	a7,a4,s11
    80002fe0:	6018                	ld	a4,0(s0)
    80002fe2:	d8d43c23          	sd	a3,-616(s0)
    80002fe6:	4511                	li	a0,4
    80002fe8:	e03a                	sd	a4,0(sp)
    80002fea:	ef043803          	ld	a6,-272(s0)
    80002fee:	ef843703          	ld	a4,-264(s0)
    80002ff2:	e1843603          	ld	a2,-488(s0)
    80002ff6:	e0843583          	ld	a1,-504(s0)
    80002ffa:	daf43023          	sd	a5,-608(s0)
    80002ffe:	1d7d                	addi	s10,s10,-1
    80003000:	800ff0ef          	jal	ra,80002000 <mm_naive>
    80003004:	ed043783          	ld	a5,-304(s0)
    80003008:	d9843683          	ld	a3,-616(s0)
    8000300c:	d9043e03          	ld	t3,-624(s0)
    80003010:	9c3e                	add	s8,s8,a5
    80003012:	96be                	add	a3,a3,a5
    80003014:	9abe                	add	s5,s5,a5
    80003016:	e9843783          	ld	a5,-360(s0)
    8000301a:	d8843303          	ld	t1,-632(s0)
    8000301e:	9dbe                	add	s11,s11,a5
    80003020:	da043783          	ld	a5,-608(s0)
    80003024:	b40d1fe3          	bnez	s10,80002b82 <mm_cb+0xa32>
    80003028:	ea843703          	ld	a4,-344(s0)
    8000302c:	ee043a83          	ld	s5,-288(s0)
    80003030:	e1843603          	ld	a2,-488(s0)
    80003034:	006706b3          	add	a3,a4,t1
    80003038:	6018                	ld	a4,0(s0)
    8000303a:	018e0f13          	addi	t5,t3,24
    8000303e:	87d6                	mv	a5,s5
    80003040:	e03a                	sd	a4,0(sp)
    80003042:	e2043883          	ld	a7,-480(s0)
    80003046:	ef043803          	ld	a6,-272(s0)
    8000304a:	ef843703          	ld	a4,-264(s0)
    8000304e:	e6843583          	ld	a1,-408(s0)
    80003052:	ede43023          	sd	t5,-320(s0)
    80003056:	4501                	li	a0,0
    80003058:	8d1a                	mv	s10,t1
    8000305a:	fa7fe0ef          	jal	ra,80002000 <mm_naive>
    8000305e:	de843783          	ld	a5,-536(s0)
    80003062:	ec043f03          	ld	t5,-320(s0)
    80003066:	0c0d0d13          	addi	s10,s10,192
    8000306a:	97d6                	add	a5,a5,s5
    8000306c:	eef43023          	sd	a5,-288(s0)
    80003070:	f2043783          	ld	a5,-224(s0)
    80003074:	acff61e3          	bltu	t5,a5,80002b36 <mm_cb+0x9e6>
    80003078:	da843c03          	ld	s8,-600(s0)
    8000307c:	e2043883          	ld	a7,-480(s0)
    80003080:	f2843783          	ld	a5,-216(s0)
    80003084:	0c61                	addi	s8,s8,24
    80003086:	f1143023          	sd	a7,-256(s0)
    8000308a:	de043d83          	ld	s11,-544(s0)
    8000308e:	e9043e83          	ld	t4,-368(s0)
    80003092:	d4fc6e63          	bltu	s8,a5,800025ee <mm_cb+0x49e>
    80003096:	eb843783          	ld	a5,-328(s0)
    8000309a:	f2843683          	ld	a3,-216(s0)
    8000309e:	e8843f03          	ld	t5,-376(s0)
    800030a2:	dd843303          	ld	t1,-552(s0)
    800030a6:	e8043b03          	ld	s6,-384(s0)
    800030aa:	dc843c03          	ld	s8,-568(s0)
    800030ae:	ef843703          	ld	a4,-264(s0)
    800030b2:	ef043503          	ld	a0,-272(s0)
    800030b6:	dc043d03          	ld	s10,-576(s0)
    800030ba:	00043803          	ld	a6,0(s0)
    800030be:	db843a03          	ld	s4,-584(s0)
    800030c2:	db043483          	ld	s1,-592(s0)
    800030c6:	6af6fc63          	bgeu	a3,a5,8000377e <mm_cb+0x162e>
    800030ca:	6a0b0a63          	beqz	s6,8000377e <mm_cb+0x162e>
    800030ce:	ea043783          	ld	a5,-352(s0)
    800030d2:	00ea0ab3          	add	s5,s4,a4
    800030d6:	00471e93          	slli	t4,a4,0x4
    800030da:	97c2                	add	a5,a5,a6
    800030dc:	00379893          	slli	a7,a5,0x3
    800030e0:	00481793          	slli	a5,a6,0x4
    800030e4:	003a9b93          	slli	s7,s5,0x3
    800030e8:	eef43823          	sd	a5,-272(s0)
    800030ec:	eb843683          	ld	a3,-328(s0)
    800030f0:	47e1                	li	a5,24
    800030f2:	f2843603          	ld	a2,-216(s0)
    800030f6:	02f6f7b3          	remu	a5,a3,a5
    800030fa:	f1043f83          	ld	t6,-240(s0)
    800030fe:	94aa                	add	s1,s1,a0
    80003100:	00649693          	slli	a3,s1,0x6
    80003104:	e2d43c23          	sd	a3,-456(s0)
    80003108:	4481                	li	s1,0
    8000310a:	82a6                	mv	t0,s1
    8000310c:	89da                	mv	s3,s6
    8000310e:	e6043483          	ld	s1,-416(s0)
    80003112:	eb043903          	ld	s2,-336(s0)
    80003116:	e7a43023          	sd	s10,-416(s0)
    8000311a:	e5043b03          	ld	s6,-432(s0)
    8000311e:	e3e43823          	sd	t5,-464(s0)
    80003122:	ece43423          	sd	a4,-312(s0)
    80003126:	03f606b3          	mul	a3,a2,t6
    8000312a:	ffc7f593          	andi	a1,a5,-4
    8000312e:	8b8d                	andi	a5,a5,3
    80003130:	e6f43c23          	sd	a5,-392(s0)
    80003134:	ecb43c23          	sd	a1,-296(s0)
    80003138:	026607b3          	mul	a5,a2,t1
    8000313c:	00dd0e33          	add	t3,s10,a3
    80003140:	e4843d03          	ld	s10,-440(s0)
    80003144:	03f58a33          	mul	s4,a1,t6
    80003148:	00fc0ab3          	add	s5,s8,a5
    8000314c:	e4043c03          	ld	s8,-448(s0)
    80003150:	8dd6                	mv	s11,s5
    80003152:	8af6                	mv	s5,t4
    80003154:	8ef2                	mv	t4,t3
    80003156:	026586b3          	mul	a3,a1,t1
    8000315a:	87d2                	mv	a5,s4
    8000315c:	8a1a                	mv	s4,t1
    8000315e:	e6d43823          	sd	a3,-400(s0)
    80003162:	f2043703          	ld	a4,-224(s0)
    80003166:	5e070d63          	beqz	a4,80003760 <mm_cb+0x1610>
    8000316a:	40598733          	sub	a4,s3,t0
    8000316e:	eae43423          	sd	a4,-344(s0)
    80003172:	46e5                	li	a3,25
    80003174:	85ba                	mv	a1,a4
    80003176:	00e6f363          	bgeu	a3,a4,8000317c <mm_cb+0x102c>
    8000317a:	45e5                	li	a1,25
    8000317c:	4715                	li	a4,5
    8000317e:	02e5d6b3          	divu	a3,a1,a4
    80003182:	01d78633          	add	a2,a5,t4
    80003186:	e6c43423          	sd	a2,-408(s0)
    8000318a:	8f6e                	mv	t5,s11
    8000318c:	e3b43023          	sd	s11,-480(s0)
    80003190:	e5843d83          	ld	s11,-424(s0)
    80003194:	4f81                	li	t6,0
    80003196:	f1243c23          	sd	s2,-232(s0)
    8000319a:	e4b43823          	sd	a1,-432(s0)
    8000319e:	e4543423          	sd	t0,-440(s0)
    800031a2:	8e7e                	mv	t3,t6
    800031a4:	e4f43023          	sd	a5,-448(s0)
    800031a8:	edd43023          	sd	t4,-320(s0)
    800031ac:	e3243423          	sd	s2,-472(s0)
    800031b0:	eb143c23          	sd	a7,-328(s0)
    800031b4:	e1343c23          	sd	s3,-488(s0)
    800031b8:	eea43c23          	sd	a0,-264(s0)
    800031bc:	01043023          	sd	a6,0(s0)
    800031c0:	02e5f733          	remu	a4,a1,a4
    800031c4:	00269613          	slli	a2,a3,0x2
    800031c8:	e8e43423          	sd	a4,-376(s0)
    800031cc:	00d60733          	add	a4,a2,a3
    800031d0:	e8e43823          	sd	a4,-368(s0)
    800031d4:	070e                	slli	a4,a4,0x3
    800031d6:	eee43023          	sd	a4,-288(s0)
    800031da:	f2043783          	ld	a5,-224(s0)
    800031de:	41c78633          	sub	a2,a5,t3
    800031e2:	47e1                	li	a5,24
    800031e4:	00c7f363          	bgeu	a5,a2,800031ea <mm_cb+0x109a>
    800031e8:	4661                	li	a2,24
    800031ea:	ed843783          	ld	a5,-296(s0)
    800031ee:	4e078e63          	beqz	a5,800036ea <mm_cb+0x159a>
    800031f2:	ee043783          	ld	a5,-288(s0)
    800031f6:	f1843703          	ld	a4,-232(s0)
    800031fa:	ec043303          	ld	t1,-320(s0)
    800031fe:	00361993          	slli	s3,a2,0x3
    80003202:	97ba                	add	a5,a5,a4
    80003204:	e8f43023          	sd	a5,-384(s0)
    80003208:	4799                	li	a5,6
    8000320a:	02f657b3          	divu	a5,a2,a5
    8000320e:	99fa                	add	s3,s3,t5
    80003210:	86fa                	mv	a3,t5
    80003212:	f0043023          	sd	zero,-256(s0)
    80003216:	eac43823          	sd	a2,-336(s0)
    8000321a:	e1c43823          	sd	t3,-496(s0)
    8000321e:	e1e43423          	sd	t5,-504(s0)
    80003222:	03878fb3          	mul	t6,a5,s8
    80003226:	00179913          	slli	s2,a5,0x1
    8000322a:	993e                	add	s2,s2,a5
    8000322c:	0912                	slli	s2,s2,0x4
    8000322e:	997a                	add	s2,s2,t5
    80003230:	ea843783          	ld	a5,-344(s0)
    80003234:	4711                	li	a4,4
    80003236:	44f77263          	bgeu	a4,a5,8000367a <mm_cb+0x152a>
    8000323a:	f1043783          	ld	a5,-240(s0)
    8000323e:	f1843383          	ld	t2,-232(s0)
    80003242:	e9043803          	ld	a6,-368(s0)
    80003246:	00f302b3          	add	t0,t1,a5
    8000324a:	ef043783          	ld	a5,-272(s0)
    8000324e:	8e1a                	mv	t3,t1
    80003250:	4081                	li	ra,0
    80003252:	00f30f33          	add	t5,t1,a5
    80003256:	eb843783          	ld	a5,-328(s0)
    8000325a:	00f30eb3          	add	t4,t1,a5
    8000325e:	000e3287          	fld	ft5,0(t3)
    80003262:	008e3207          	fld	ft4,8(t3)
    80003266:	010e3187          	fld	ft3,16(t3)
    8000326a:	018e3107          	fld	ft2,24(t3)
    8000326e:	020e3687          	fld	fa3,32(t3)
    80003272:	0002bf87          	fld	ft11,0(t0)
    80003276:	0082bf07          	fld	ft10,8(t0)
    8000327a:	0102be87          	fld	ft9,16(t0)
    8000327e:	0182be07          	fld	ft8,24(t0)
    80003282:	0202b707          	fld	fa4,32(t0)
    80003286:	000f3887          	fld	fa7,0(t5)
    8000328a:	008f3807          	fld	fa6,8(t5)
    8000328e:	010f3387          	fld	ft7,16(t5)
    80003292:	018f3307          	fld	ft6,24(t5)
    80003296:	020f3787          	fld	fa5,32(t5)
    8000329a:	000eb087          	fld	ft1,0(t4)
    8000329e:	008eb007          	fld	ft0,8(t4)
    800032a2:	010eb507          	fld	fa0,16(t4)
    800032a6:	018eb587          	fld	fa1,24(t4)
    800032aa:	020eb607          	fld	fa2,32(t4)
    800032ae:	879e                	mv	a5,t2
    800032b0:	2d26f963          	bgeu	a3,s2,80003582 <mm_cb+0x1432>
    800032b4:	01468533          	add	a0,a3,s4
    800032b8:	015685b3          	add	a1,a3,s5
    800032bc:	01768633          	add	a2,a3,s7
    800032c0:	8736                	mv	a4,a3
    800032c2:	00073c07          	fld	fs8,0(a4)
    800032c6:	00053b87          	fld	fs7,0(a0)
    800032ca:	0005bb07          	fld	fs6,0(a1)
    800032ce:	2200                	fld	fs0,0(a2)
    800032d0:	0007ba87          	fld	fs5,0(a5)
    800032d4:	0087ba07          	fld	fs4,8(a5)
    800032d8:	0107b987          	fld	fs3,16(a5)
    800032dc:	0187b907          	fld	fs2,24(a5)
    800032e0:	3384                	fld	fs1,32(a5)
    800032e2:	0a8af0c3          	fmadd.d	ft1,fs5,fs0,ft1
    800032e6:	028a7043          	fmadd.d	ft0,fs4,fs0,ft0
    800032ea:	6a9c76c3          	fmadd.d	fa3,fs8,fs1,fa3
    800032ee:	7374f743          	fmadd.d	fa4,fs1,fs7,fa4
    800032f2:	7b64f7c3          	fmadd.d	fa5,fs1,fs6,fa5
    800032f6:	5289f543          	fmadd.d	fa0,fs3,fs0,fa0
    800032fa:	5a8975c3          	fmadd.d	fa1,fs2,fs0,fa1
    800032fe:	6284f643          	fmadd.d	fa2,fs1,fs0,fa2
    80003302:	2b5c72c3          	fmadd.d	ft5,fs8,fs5,ft5
    80003306:	234c7243          	fmadd.d	ft4,fs8,fs4,ft4
    8000330a:	1b3c71c3          	fmadd.d	ft3,fs8,fs3,ft3
    8000330e:	132c7143          	fmadd.d	ft2,fs8,fs2,ft2
    80003312:	fb7affc3          	fmadd.d	ft11,fs5,fs7,ft11
    80003316:	f37a7f43          	fmadd.d	ft10,fs4,fs7,ft10
    8000331a:	eb79fec3          	fmadd.d	ft9,fs3,fs7,ft9
    8000331e:	e3797e43          	fmadd.d	ft8,fs2,fs7,ft8
    80003322:	8b6af8c3          	fmadd.d	fa7,fs5,fs6,fa7
    80003326:	836a7843          	fmadd.d	fa6,fs4,fs6,fa6
    8000332a:	3b69f3c3          	fmadd.d	ft7,fs3,fs6,ft7
    8000332e:	33697343          	fmadd.d	ft6,fs2,fs6,ft6
    80003332:	009788b3          	add	a7,a5,s1
    80003336:	00863c07          	fld	fs8,8(a2)
    8000333a:	00873907          	fld	fs2,8(a4)
    8000333e:	2504                	fld	fs1,8(a0)
    80003340:	2580                	fld	fs0,8(a1)
    80003342:	0008bb87          	fld	fs7,0(a7)
    80003346:	0088bb07          	fld	fs6,8(a7)
    8000334a:	0108ba87          	fld	fs5,16(a7)
    8000334e:	0188ba07          	fld	fs4,24(a7)
    80003352:	0208b987          	fld	fs3,32(a7)
    80003356:	2b7972c3          	fmadd.d	ft5,fs2,fs7,ft5
    8000335a:	23697243          	fmadd.d	ft4,fs2,fs6,ft4
    8000335e:	1b5971c3          	fmadd.d	ft3,fs2,fs5,ft3
    80003362:	13497143          	fmadd.d	ft2,fs2,fs4,ft2
    80003366:	fa9bffc3          	fmadd.d	ft11,fs7,fs1,ft11
    8000336a:	6b397943          	fmadd.d	fs2,fs2,fs3,fa3
    8000336e:	f29b7f43          	fmadd.d	ft10,fs6,fs1,ft10
    80003372:	ea9afec3          	fmadd.d	ft9,fs5,fs1,ft9
    80003376:	e29a7e43          	fmadd.d	ft8,fs4,fs1,ft8
    8000337a:	8a8bf8c3          	fmadd.d	fa7,fs7,fs0,fa7
    8000337e:	7299f4c3          	fmadd.d	fs1,fs3,fs1,fa4
    80003382:	0b8bfbc3          	fmadd.d	fs7,fs7,fs8,ft1
    80003386:	828b7843          	fmadd.d	fa6,fs6,fs0,fa6
    8000338a:	3a8af3c3          	fmadd.d	ft7,fs5,fs0,ft7
    8000338e:	038b7b43          	fmadd.d	fs6,fs6,fs8,ft0
    80003392:	538afac3          	fmadd.d	fs5,fs5,fs8,fa0
    80003396:	328a7343          	fmadd.d	ft6,fs4,fs0,ft6
    8000339a:	7a89f443          	fmadd.d	fs0,fs3,fs0,fa5
    8000339e:	5b8a7a43          	fmadd.d	fs4,fs4,fs8,fa1
    800033a2:	6389f9c3          	fmadd.d	fs3,fs3,fs8,fa2
    800033a6:	01b788b3          	add	a7,a5,s11
    800033aa:	2b10                	fld	fa2,16(a4)
    800033ac:	2914                	fld	fa3,16(a0)
    800033ae:	299c                	fld	fa5,16(a1)
    800033b0:	01063c87          	fld	fs9,16(a2)
    800033b4:	0008bc07          	fld	fs8,0(a7)
    800033b8:	0088b087          	fld	ft1,8(a7)
    800033bc:	0108b007          	fld	ft0,16(a7)
    800033c0:	0188b507          	fld	fa0,24(a7)
    800033c4:	0208b587          	fld	fa1,32(a7)
    800033c8:	2b8672c3          	fmadd.d	ft5,fa2,fs8,ft5
    800033cc:	22167243          	fmadd.d	ft4,fa2,ft1,ft4
    800033d0:	1a0671c3          	fmadd.d	ft3,fa2,ft0,ft3
    800033d4:	12a67143          	fmadd.d	ft2,fa2,fa0,ft2
    800033d8:	fadc7fc3          	fmadd.d	ft11,fs8,fa3,ft11
    800033dc:	92b67643          	fmadd.d	fa2,fa2,fa1,fs2
    800033e0:	f2d0ff43          	fmadd.d	ft10,ft1,fa3,ft10
    800033e4:	ead07ec3          	fmadd.d	ft9,ft0,fa3,ft9
    800033e8:	e2d57e43          	fmadd.d	ft8,fa0,fa3,ft8
    800033ec:	8afc78c3          	fmadd.d	fa7,fs8,fa5,fa7
    800033f0:	4ad5f6c3          	fmadd.d	fa3,fa1,fa3,fs1
    800033f4:	bb9c7c43          	fmadd.d	fs8,fs8,fs9,fs7
    800033f8:	82f0f843          	fmadd.d	fa6,ft1,fa5,fa6
    800033fc:	3af073c3          	fmadd.d	ft7,ft0,fa5,ft7
    80003400:	b390f0c3          	fmadd.d	ft1,ft1,fs9,fs6
    80003404:	ab907043          	fmadd.d	ft0,ft0,fs9,fs5
    80003408:	32f57343          	fmadd.d	ft6,fa0,fa5,ft6
    8000340c:	42f5f7c3          	fmadd.d	fa5,fa1,fa5,fs0
    80003410:	a3957543          	fmadd.d	fa0,fa0,fs9,fs4
    80003414:	9b95f5c3          	fmadd.d	fa1,fa1,fs9,fs3
    80003418:	016788b3          	add	a7,a5,s6
    8000341c:	01873987          	fld	fs3,24(a4)
    80003420:	0008bb87          	fld	fs7,0(a7)
    80003424:	0088bb07          	fld	fs6,8(a7)
    80003428:	0108ba87          	fld	fs5,16(a7)
    8000342c:	0188ba07          	fld	fs4,24(a7)
    80003430:	0208bc87          	fld	fs9,32(a7)
    80003434:	01853907          	fld	fs2,24(a0)
    80003438:	2d84                	fld	fs1,24(a1)
    8000343a:	2e00                	fld	fs0,24(a2)
    8000343c:	2b79f743          	fmadd.d	fa4,fs3,fs7,ft5
    80003440:	2369f243          	fmadd.d	ft4,fs3,fs6,ft4
    80003444:	1b59f1c3          	fmadd.d	ft3,fs3,fs5,ft3
    80003448:	1349f143          	fmadd.d	ft2,fs3,fs4,ft2
    8000344c:	fb2bffc3          	fmadd.d	ft11,fs7,fs2,ft11
    80003450:	6399f9c3          	fmadd.d	fs3,fs3,fs9,fa2
    80003454:	f32b7f43          	fmadd.d	ft10,fs6,fs2,ft10
    80003458:	eb2afec3          	fmadd.d	ft9,fs5,fs2,ft9
    8000345c:	e32a7e43          	fmadd.d	ft8,fs4,fs2,ft8
    80003460:	8a9bf8c3          	fmadd.d	fa7,fs7,fs1,fa7
    80003464:	6b2cf943          	fmadd.d	fs2,fs9,fs2,fa3
    80003468:	829b7843          	fmadd.d	fa6,fs6,fs1,fa6
    8000346c:	3a9af3c3          	fmadd.d	ft7,fs5,fs1,ft7
    80003470:	329a7343          	fmadd.d	ft6,fs4,fs1,ft6
    80003474:	c28bfbc3          	fmadd.d	fs7,fs7,fs0,fs8
    80003478:	7a9cf4c3          	fmadd.d	fs1,fs9,fs1,fa5
    8000347c:	0a8b7b43          	fmadd.d	fs6,fs6,fs0,ft1
    80003480:	028afac3          	fmadd.d	fs5,fs5,fs0,ft0
    80003484:	528a7a43          	fmadd.d	fs4,fs4,fs0,fa0
    80003488:	5a8cf443          	fmadd.d	fs0,fs9,fs0,fa1
    8000348c:	019788b3          	add	a7,a5,s9
    80003490:	310c                	fld	fa1,32(a0)
    80003492:	3190                	fld	fa2,32(a1)
    80003494:	3214                	fld	fa3,32(a2)
    80003496:	331c                	fld	fa5,32(a4)
    80003498:	0088bc07          	fld	fs8,8(a7)
    8000349c:	0108b087          	fld	ft1,16(a7)
    800034a0:	0188b007          	fld	ft0,24(a7)
    800034a4:	0208b507          	fld	fa0,32(a7)
    800034a8:	0008bc87          	fld	fs9,0(a7)
    800034ac:	2387f243          	fmadd.d	ft4,fa5,fs8,ft4
    800034b0:	1a17f1c3          	fmadd.d	ft3,fa5,ft1,ft3
    800034b4:	7397f2c3          	fmadd.d	ft5,fa5,fs9,fa4
    800034b8:	1207f143          	fmadd.d	ft2,fa5,ft0,ft2
    800034bc:	f2bc7f43          	fmadd.d	ft10,fs8,fa1,ft10
    800034c0:	9aa7f7c3          	fmadd.d	fa5,fa5,fa0,fs3
    800034c4:	eab0fec3          	fmadd.d	ft9,ft1,fa1,ft9
    800034c8:	4ac579c3          	fmadd.d	fs3,fa0,fa2,fs1
    800034cc:	e2b07e43          	fmadd.d	ft8,ft0,fa1,ft8
    800034d0:	92b57943          	fmadd.d	fs2,fa0,fa1,fs2
    800034d4:	82cc7843          	fmadd.d	fa6,fs8,fa2,fa6
    800034d8:	3ac0f3c3          	fmadd.d	ft7,ft1,fa2,ft7
    800034dc:	32c07343          	fmadd.d	ft6,ft0,fa2,ft6
    800034e0:	b2dc7b43          	fmadd.d	fs6,fs8,fa3,fs6
    800034e4:	aad0fac3          	fmadd.d	fs5,ft1,fa3,fs5
    800034e8:	42d57c43          	fmadd.d	fs8,fa0,fa3,fs0
    800034ec:	a2d07a43          	fmadd.d	fs4,ft0,fa3,fs4
    800034f0:	fabcffc3          	fmadd.d	ft11,fs9,fa1,ft11
    800034f4:	8accf8c3          	fmadd.d	fa7,fs9,fa2,fa7
    800034f8:	badcfbc3          	fmadd.d	fs7,fs9,fa3,fs7
    800034fc:	01a788b3          	add	a7,a5,s10
    80003500:	3714                	fld	fa3,40(a4)
    80003502:	3518                	fld	fa4,40(a0)
    80003504:	3584                	fld	fs1,40(a1)
    80003506:	3600                	fld	fs0,40(a2)
    80003508:	0008b087          	fld	ft1,0(a7)
    8000350c:	0088b007          	fld	ft0,8(a7)
    80003510:	0108b507          	fld	fa0,16(a7)
    80003514:	0188b587          	fld	fa1,24(a7)
    80003518:	0208b607          	fld	fa2,32(a7)
    8000351c:	03070713          	addi	a4,a4,48
    80003520:	2a16f2c3          	fmadd.d	ft5,fa3,ft1,ft5
    80003524:	2206f243          	fmadd.d	ft4,fa3,ft0,ft4
    80003528:	1aa6f1c3          	fmadd.d	ft3,fa3,fa0,ft3
    8000352c:	12b6f143          	fmadd.d	ft2,fa3,fa1,ft2
    80003530:	fae0ffc3          	fmadd.d	ft11,ft1,fa4,ft11
    80003534:	7ac6f6c3          	fmadd.d	fa3,fa3,fa2,fa5
    80003538:	f2e07f43          	fmadd.d	ft10,ft0,fa4,ft10
    8000353c:	eae57ec3          	fmadd.d	ft9,fa0,fa4,ft9
    80003540:	e2e5fe43          	fmadd.d	ft8,fa1,fa4,ft8
    80003544:	8a90f8c3          	fmadd.d	fa7,ft1,fs1,fa7
    80003548:	92e67743          	fmadd.d	fa4,fa2,fa4,fs2
    8000354c:	82907843          	fmadd.d	fa6,ft0,fs1,fa6
    80003550:	3a9573c3          	fmadd.d	ft7,fa0,fs1,ft7
    80003554:	3295f343          	fmadd.d	ft6,fa1,fs1,ft6
    80003558:	9a9677c3          	fmadd.d	fa5,fa2,fs1,fs3
    8000355c:	ba80f0c3          	fmadd.d	ft1,ft1,fs0,fs7
    80003560:	b2807043          	fmadd.d	ft0,ft0,fs0,fs6
    80003564:	aa857543          	fmadd.d	fa0,fa0,fs0,fs5
    80003568:	a285f5c3          	fmadd.d	fa1,fa1,fs0,fs4
    8000356c:	c2867643          	fmadd.d	fa2,fa2,fs0,fs8
    80003570:	97e2                	add	a5,a5,s8
    80003572:	03050513          	addi	a0,a0,48
    80003576:	03058593          	addi	a1,a1,48
    8000357a:	03060613          	addi	a2,a2,48
    8000357e:	d52762e3          	bltu	a4,s2,800032c2 <mm_cb+0x1172>
    80003582:	007f8733          	add	a4,t6,t2
    80003586:	09397563          	bgeu	s2,s3,80003610 <mm_cb+0x14c0>
    8000358a:	87ca                	mv	a5,s2
    8000358c:	01478533          	add	a0,a5,s4
    80003590:	015785b3          	add	a1,a5,s5
    80003594:	01778633          	add	a2,a5,s7
    80003598:	0007b987          	fld	fs3,0(a5)
    8000359c:	00073c07          	fld	fs8,0(a4)
    800035a0:	00873b87          	fld	fs7,8(a4)
    800035a4:	01073b07          	fld	fs6,16(a4)
    800035a8:	01873a87          	fld	fs5,24(a4)
    800035ac:	02073a07          	fld	fs4,32(a4)
    800035b0:	00053907          	fld	fs2,0(a0)
    800035b4:	2184                	fld	fs1,0(a1)
    800035b6:	2200                	fld	fs0,0(a2)
    800035b8:	07a1                	addi	a5,a5,8
    800035ba:	2b89f2c3          	fmadd.d	ft5,fs3,fs8,ft5
    800035be:	2379f243          	fmadd.d	ft4,fs3,fs7,ft4
    800035c2:	1b69f1c3          	fmadd.d	ft3,fs3,fs6,ft3
    800035c6:	1359f143          	fmadd.d	ft2,fs3,fs5,ft2
    800035ca:	6b49f6c3          	fmadd.d	fa3,fs3,fs4,fa3
    800035ce:	fb2c7fc3          	fmadd.d	ft11,fs8,fs2,ft11
    800035d2:	f32bff43          	fmadd.d	ft10,fs7,fs2,ft10
    800035d6:	eb2b7ec3          	fmadd.d	ft9,fs6,fs2,ft9
    800035da:	e32afe43          	fmadd.d	ft8,fs5,fs2,ft8
    800035de:	732a7743          	fmadd.d	fa4,fs4,fs2,fa4
    800035e2:	8a9c78c3          	fmadd.d	fa7,fs8,fs1,fa7
    800035e6:	829bf843          	fmadd.d	fa6,fs7,fs1,fa6
    800035ea:	3a9b73c3          	fmadd.d	ft7,fs6,fs1,ft7
    800035ee:	329af343          	fmadd.d	ft6,fs5,fs1,ft6
    800035f2:	7a9a77c3          	fmadd.d	fa5,fs4,fs1,fa5
    800035f6:	0a8c70c3          	fmadd.d	ft1,fs8,fs0,ft1
    800035fa:	028bf043          	fmadd.d	ft0,fs7,fs0,ft0
    800035fe:	528b7543          	fmadd.d	fa0,fs6,fs0,fa0
    80003602:	5a8af5c3          	fmadd.d	fa1,fs5,fs0,fa1
    80003606:	628a7643          	fmadd.d	fa2,fs4,fs0,fa2
    8000360a:	9726                	add	a4,a4,s1
    8000360c:	f937e0e3          	bltu	a5,s3,8000358c <mm_cb+0x143c>
    80003610:	005e3027          	fsd	ft5,0(t3)
    80003614:	004e3427          	fsd	ft4,8(t3)
    80003618:	003e3827          	fsd	ft3,16(t3)
    8000361c:	002e3c27          	fsd	ft2,24(t3)
    80003620:	02de3027          	fsd	fa3,32(t3)
    80003624:	01f2b027          	fsd	ft11,0(t0)
    80003628:	01e2b427          	fsd	ft10,8(t0)
    8000362c:	01d2b827          	fsd	ft9,16(t0)
    80003630:	01c2bc27          	fsd	ft8,24(t0)
    80003634:	02e2b027          	fsd	fa4,32(t0)
    80003638:	011f3027          	fsd	fa7,0(t5)
    8000363c:	010f3427          	fsd	fa6,8(t5)
    80003640:	007f3827          	fsd	ft7,16(t5)
    80003644:	006f3c27          	fsd	ft6,24(t5)
    80003648:	02ff3027          	fsd	fa5,32(t5)
    8000364c:	001eb027          	fsd	ft1,0(t4)
    80003650:	000eb427          	fsd	ft0,8(t4)
    80003654:	00aeb827          	fsd	fa0,16(t4)
    80003658:	00bebc27          	fsd	fa1,24(t4)
    8000365c:	02ceb027          	fsd	fa2,32(t4)
    80003660:	0095                	addi	ra,ra,5
    80003662:	028e0e13          	addi	t3,t3,40
    80003666:	02828293          	addi	t0,t0,40
    8000366a:	028f0f13          	addi	t5,t5,40
    8000366e:	028e8e93          	addi	t4,t4,40
    80003672:	02838393          	addi	t2,t2,40
    80003676:	bf00e4e3          	bltu	ra,a6,8000325e <mm_cb+0x110e>
    8000367a:	ee043783          	ld	a5,-288(s0)
    8000367e:	dff43823          	sd	t6,-528(s0)
    80003682:	de643c23          	sd	t1,-520(s0)
    80003686:	006788b3          	add	a7,a5,t1
    8000368a:	601c                	ld	a5,0(s0)
    8000368c:	e0d43023          	sd	a3,-512(s0)
    80003690:	4511                	li	a0,4
    80003692:	e03e                	sd	a5,0(sp)
    80003694:	f0043303          	ld	t1,-256(s0)
    80003698:	e8043783          	ld	a5,-384(s0)
    8000369c:	ec843703          	ld	a4,-312(s0)
    800036a0:	ef843803          	ld	a6,-264(s0)
    800036a4:	eb043603          	ld	a2,-336(s0)
    800036a8:	e8843583          	ld	a1,-376(s0)
    800036ac:	0311                	addi	t1,t1,4
    800036ae:	f0643023          	sd	t1,-256(s0)
    800036b2:	94ffe0ef          	jal	ra,80002000 <mm_naive>
    800036b6:	ed043783          	ld	a5,-304(s0)
    800036ba:	e9843703          	ld	a4,-360(s0)
    800036be:	e0043683          	ld	a3,-512(s0)
    800036c2:	df843303          	ld	t1,-520(s0)
    800036c6:	993e                	add	s2,s2,a5
    800036c8:	96be                	add	a3,a3,a5
    800036ca:	99be                	add	s3,s3,a5
    800036cc:	933a                	add	t1,t1,a4
    800036ce:	f0043783          	ld	a5,-256(s0)
    800036d2:	ed843703          	ld	a4,-296(s0)
    800036d6:	df043f83          	ld	t6,-528(s0)
    800036da:	b4e7ebe3          	bltu	a5,a4,80003230 <mm_cb+0x10e0>
    800036de:	eb043603          	ld	a2,-336(s0)
    800036e2:	e1043e03          	ld	t3,-496(s0)
    800036e6:	e0843f03          	ld	t5,-504(s0)
    800036ea:	e7043703          	ld	a4,-400(s0)
    800036ee:	ebe43823          	sd	t5,-336(s0)
    800036f2:	f1843903          	ld	s2,-232(s0)
    800036f6:	01e706b3          	add	a3,a4,t5
    800036fa:	6018                	ld	a4,0(s0)
    800036fc:	0e61                	addi	t3,t3,24
    800036fe:	87ca                	mv	a5,s2
    80003700:	e03a                	sd	a4,0(sp)
    80003702:	e6843883          	ld	a7,-408(s0)
    80003706:	ef843803          	ld	a6,-264(s0)
    8000370a:	ec843703          	ld	a4,-312(s0)
    8000370e:	e5043583          	ld	a1,-432(s0)
    80003712:	e7843503          	ld	a0,-392(s0)
    80003716:	f1c43023          	sd	t3,-256(s0)
    8000371a:	8e7fe0ef          	jal	ra,80002000 <mm_naive>
    8000371e:	e3843783          	ld	a5,-456(s0)
    80003722:	eb043f03          	ld	t5,-336(s0)
    80003726:	f0043e03          	ld	t3,-256(s0)
    8000372a:	97ca                	add	a5,a5,s2
    8000372c:	f0f43c23          	sd	a5,-232(s0)
    80003730:	f2043783          	ld	a5,-224(s0)
    80003734:	0c0f0f13          	addi	t5,t5,192
    80003738:	aafe61e3          	bltu	t3,a5,800031da <mm_cb+0x108a>
    8000373c:	e4843283          	ld	t0,-440(s0)
    80003740:	e4043783          	ld	a5,-448(s0)
    80003744:	ec043e83          	ld	t4,-320(s0)
    80003748:	e2843903          	ld	s2,-472(s0)
    8000374c:	e2043d83          	ld	s11,-480(s0)
    80003750:	eb843883          	ld	a7,-328(s0)
    80003754:	e1843983          	ld	s3,-488(s0)
    80003758:	ef843503          	ld	a0,-264(s0)
    8000375c:	00043803          	ld	a6,0(s0)
    80003760:	02e5                	addi	t0,t0,25
    80003762:	0c890913          	addi	s2,s2,200
    80003766:	0c8e8e93          	addi	t4,t4,200
    8000376a:	9f32ece3          	bltu	t0,s3,80003162 <mm_cb+0x1012>
    8000376e:	f2843783          	ld	a5,-216(s0)
    80003772:	e3043f03          	ld	t5,-464(s0)
    80003776:	e6043d03          	ld	s10,-416(s0)
    8000377a:	8b4e                	mv	s6,s3
    8000377c:	cbc5                	beqz	a5,8000382c <mm_cb+0x16dc>
    8000377e:	ea043703          	ld	a4,-352(s0)
    80003782:	6785                	lui	a5,0x1
    80003784:	8e6a                	mv	t3,s10
    80003786:	010705b3          	add	a1,a4,a6
    8000378a:	059a                	slli	a1,a1,0x6
    8000378c:	4881                	li	a7,0
    8000378e:	4fe1                	li	t6,24
    80003790:	44e5                	li	s1,25
    80003792:	2c078393          	addi	t2,a5,704 # 12c0 <buflen.1+0x1240>
    80003796:	38078813          	addi	a6,a5,896
    8000379a:	096ff363          	bgeu	t6,s6,80003820 <mm_cb+0x16d0>
    8000379e:	03f8d533          	divu	a0,a7,t6
    800037a2:	82f2                	mv	t0,t3
    800037a4:	4301                	li	t1,0
    800037a6:	03e50533          	mul	a0,a0,t5
    800037aa:	ee843703          	ld	a4,-280(s0)
    800037ae:	8e96                	mv	t4,t0
    800037b0:	029357b3          	divu	a5,t1,s1
    800037b4:	97aa                	add	a5,a5,a0
    800037b6:	027787b3          	mul	a5,a5,t2
    800037ba:	97ba                	add	a5,a5,a4
    800037bc:	0c078693          	addi	a3,a5,192
    800037c0:	01078633          	add	a2,a5,a6
    800037c4:	f4068793          	addi	a5,a3,-192
    800037c8:	8776                	mv	a4,t4
    800037ca:	0007b087          	fld	ft1,0(a5)
    800037ce:	0087b007          	fld	ft0,8(a5)
    800037d2:	2b88                	fld	fa0,16(a5)
    800037d4:	2f8c                	fld	fa1,24(a5)
    800037d6:	3390                	fld	fa2,32(a5)
    800037d8:	3794                	fld	fa3,40(a5)
    800037da:	3b98                	fld	fa4,48(a5)
    800037dc:	3f9c                	fld	fa5,56(a5)
    800037de:	00173027          	fsd	ft1,0(a4)
    800037e2:	00073427          	fsd	ft0,8(a4)
    800037e6:	ab08                	fsd	fa0,16(a4)
    800037e8:	af0c                	fsd	fa1,24(a4)
    800037ea:	b310                	fsd	fa2,32(a4)
    800037ec:	b714                	fsd	fa3,40(a4)
    800037ee:	bb18                	fsd	fa4,48(a4)
    800037f0:	bf1c                	fsd	fa5,56(a4)
    800037f2:	04078793          	addi	a5,a5,64
    800037f6:	04070713          	addi	a4,a4,64
    800037fa:	fcd798e3          	bne	a5,a3,800037ca <mm_cb+0x167a>
    800037fe:	239c                	fld	fa5,0(a5)
    80003800:	0c878693          	addi	a3,a5,200
    80003804:	f1043783          	ld	a5,-240(s0)
    80003808:	0cfeb027          	fsd	fa5,192(t4)
    8000380c:	9ebe                	add	t4,t4,a5
    8000380e:	fac69be3          	bne	a3,a2,800037c4 <mm_cb+0x1674>
    80003812:	f0843783          	ld	a5,-248(s0)
    80003816:	0365                	addi	t1,t1,25
    80003818:	0c828293          	addi	t0,t0,200
    8000381c:	f8f367e3          	bltu	t1,a5,800037aa <mm_cb+0x165a>
    80003820:	f2843783          	ld	a5,-216(s0)
    80003824:	08e1                	addi	a7,a7,24
    80003826:	9e2e                	add	t3,t3,a1
    80003828:	f6f8e9e3          	bltu	a7,a5,8000379a <mm_cb+0x164a>
    8000382c:	d6040113          	addi	sp,s0,-672
    80003830:	29813083          	ld	ra,664(sp)
    80003834:	29013403          	ld	s0,656(sp)
    80003838:	28813483          	ld	s1,648(sp)
    8000383c:	28013903          	ld	s2,640(sp)
    80003840:	27813983          	ld	s3,632(sp)
    80003844:	27013a03          	ld	s4,624(sp)
    80003848:	26813a83          	ld	s5,616(sp)
    8000384c:	26013b03          	ld	s6,608(sp)
    80003850:	25813b83          	ld	s7,600(sp)
    80003854:	25013c03          	ld	s8,592(sp)
    80003858:	24813c83          	ld	s9,584(sp)
    8000385c:	24013d03          	ld	s10,576(sp)
    80003860:	23813d83          	ld	s11,568(sp)
    80003864:	22813407          	fld	fs0,552(sp)
    80003868:	22013487          	fld	fs1,544(sp)
    8000386c:	21813907          	fld	fs2,536(sp)
    80003870:	21013987          	fld	fs3,528(sp)
    80003874:	20813a07          	fld	fs4,520(sp)
    80003878:	20013a87          	fld	fs5,512(sp)
    8000387c:	3b7e                	fld	fs6,504(sp)
    8000387e:	3bde                	fld	fs7,496(sp)
    80003880:	3c3e                	fld	fs8,488(sp)
    80003882:	3c9e                	fld	fs9,480(sp)
    80003884:	2d7e                	fld	fs10,472(sp)
    80003886:	2a010113          	addi	sp,sp,672
    8000388a:	8082                	ret
    8000388c:	47e5                	li	a5,25
    8000388e:	02f357b3          	divu	a5,t1,a5
    80003892:	e0043683          	ld	a3,-512(s0)
    80003896:	00331713          	slli	a4,t1,0x3
    8000389a:	82d6                	mv	t0,s5
    8000389c:	015689b3          	add	s3,a3,s5
    800038a0:	df843683          	ld	a3,-520(s0)
    800038a4:	4f81                	li	t6,0
    800038a6:	01568933          	add	s2,a3,s5
    800038aa:	e3843683          	ld	a3,-456(s0)
    800038ae:	9736                	add	a4,a4,a3
    800038b0:	e0e43c23          	sd	a4,-488(s0)
    800038b4:	ec043703          	ld	a4,-320(s0)
    800038b8:	86d6                	mv	a3,s5
    800038ba:	97ba                	add	a5,a5,a4
    800038bc:	6705                	lui	a4,0x1
    800038be:	2c070713          	addi	a4,a4,704 # 12c0 <buflen.1+0x1240>
    800038c2:	02e787b3          	mul	a5,a5,a4
    800038c6:	ee843703          	ld	a4,-280(s0)
    800038ca:	97ba                	add	a5,a5,a4
    800038cc:	0c878893          	addi	a7,a5,200
    800038d0:	8abe                	mv	s5,a5
    800038d2:	e1843383          	ld	t2,-488(s0)
    800038d6:	e1043e83          	ld	t4,-496(s0)
    800038da:	f3888813          	addi	a6,a7,-200
    800038de:	00083287          	fld	ft5,0(a6)
    800038e2:	00883207          	fld	ft4,8(a6)
    800038e6:	01083187          	fld	ft3,16(a6)
    800038ea:	01883107          	fld	ft2,24(a6)
    800038ee:	02083687          	fld	fa3,32(a6)
    800038f2:	0c883f87          	fld	ft11,200(a6)
    800038f6:	0d083f07          	fld	ft10,208(a6)
    800038fa:	0d883e87          	fld	ft9,216(a6)
    800038fe:	0e083e07          	fld	ft8,224(a6)
    80003902:	0e883707          	fld	fa4,232(a6)
    80003906:	19083887          	fld	fa7,400(a6)
    8000390a:	19883807          	fld	fa6,408(a6)
    8000390e:	1a083387          	fld	ft7,416(a6)
    80003912:	1a883307          	fld	ft6,424(a6)
    80003916:	1b083787          	fld	fa5,432(a6)
    8000391a:	25883087          	fld	ft1,600(a6)
    8000391e:	26083007          	fld	ft0,608(a6)
    80003922:	26883507          	fld	fa0,616(a6)
    80003926:	27083587          	fld	fa1,624(a6)
    8000392a:	27883607          	fld	fa2,632(a6)
    8000392e:	879e                	mv	a5,t2
    80003930:	2d26f963          	bgeu	a3,s2,80003c02 <mm_cb+0x1ab2>
    80003934:	00d485b3          	add	a1,s1,a3
    80003938:	00b48633          	add	a2,s1,a1
    8000393c:	00c48533          	add	a0,s1,a2
    80003940:	8736                	mv	a4,a3
    80003942:	00073c07          	fld	fs8,0(a4)
    80003946:	0005bb87          	fld	fs7,0(a1)
    8000394a:	00063b07          	fld	fs6,0(a2)
    8000394e:	2100                	fld	fs0,0(a0)
    80003950:	0007ba87          	fld	fs5,0(a5)
    80003954:	0087ba07          	fld	fs4,8(a5)
    80003958:	0107b987          	fld	fs3,16(a5)
    8000395c:	0187b907          	fld	fs2,24(a5)
    80003960:	3384                	fld	fs1,32(a5)
    80003962:	0a8af0c3          	fmadd.d	ft1,fs5,fs0,ft1
    80003966:	028a7043          	fmadd.d	ft0,fs4,fs0,ft0
    8000396a:	6a9c76c3          	fmadd.d	fa3,fs8,fs1,fa3
    8000396e:	7374f743          	fmadd.d	fa4,fs1,fs7,fa4
    80003972:	7b64f7c3          	fmadd.d	fa5,fs1,fs6,fa5
    80003976:	5289f543          	fmadd.d	fa0,fs3,fs0,fa0
    8000397a:	5a8975c3          	fmadd.d	fa1,fs2,fs0,fa1
    8000397e:	6284f643          	fmadd.d	fa2,fs1,fs0,fa2
    80003982:	2b5c72c3          	fmadd.d	ft5,fs8,fs5,ft5
    80003986:	234c7243          	fmadd.d	ft4,fs8,fs4,ft4
    8000398a:	1b3c71c3          	fmadd.d	ft3,fs8,fs3,ft3
    8000398e:	132c7143          	fmadd.d	ft2,fs8,fs2,ft2
    80003992:	fb7affc3          	fmadd.d	ft11,fs5,fs7,ft11
    80003996:	f37a7f43          	fmadd.d	ft10,fs4,fs7,ft10
    8000399a:	eb79fec3          	fmadd.d	ft9,fs3,fs7,ft9
    8000399e:	e3797e43          	fmadd.d	ft8,fs2,fs7,ft8
    800039a2:	8b6af8c3          	fmadd.d	fa7,fs5,fs6,fa7
    800039a6:	836a7843          	fmadd.d	fa6,fs4,fs6,fa6
    800039aa:	3b69f3c3          	fmadd.d	ft7,fs3,fs6,ft7
    800039ae:	33697343          	fmadd.d	ft6,fs2,fs6,ft6
    800039b2:	01778e33          	add	t3,a5,s7
    800039b6:	00853c07          	fld	fs8,8(a0)
    800039ba:	00873907          	fld	fs2,8(a4)
    800039be:	2584                	fld	fs1,8(a1)
    800039c0:	2600                	fld	fs0,8(a2)
    800039c2:	000e3b87          	fld	fs7,0(t3)
    800039c6:	008e3b07          	fld	fs6,8(t3)
    800039ca:	010e3a87          	fld	fs5,16(t3)
    800039ce:	018e3a07          	fld	fs4,24(t3)
    800039d2:	020e3987          	fld	fs3,32(t3)
    800039d6:	2b7972c3          	fmadd.d	ft5,fs2,fs7,ft5
    800039da:	23697243          	fmadd.d	ft4,fs2,fs6,ft4
    800039de:	1b5971c3          	fmadd.d	ft3,fs2,fs5,ft3
    800039e2:	13497143          	fmadd.d	ft2,fs2,fs4,ft2
    800039e6:	fa9bffc3          	fmadd.d	ft11,fs7,fs1,ft11
    800039ea:	6b397943          	fmadd.d	fs2,fs2,fs3,fa3
    800039ee:	f29b7f43          	fmadd.d	ft10,fs6,fs1,ft10
    800039f2:	ea9afec3          	fmadd.d	ft9,fs5,fs1,ft9
    800039f6:	e29a7e43          	fmadd.d	ft8,fs4,fs1,ft8
    800039fa:	8a8bf8c3          	fmadd.d	fa7,fs7,fs0,fa7
    800039fe:	7299f4c3          	fmadd.d	fs1,fs3,fs1,fa4
    80003a02:	0b8bfbc3          	fmadd.d	fs7,fs7,fs8,ft1
    80003a06:	828b7843          	fmadd.d	fa6,fs6,fs0,fa6
    80003a0a:	3a8af3c3          	fmadd.d	ft7,fs5,fs0,ft7
    80003a0e:	038b7b43          	fmadd.d	fs6,fs6,fs8,ft0
    80003a12:	538afac3          	fmadd.d	fs5,fs5,fs8,fa0
    80003a16:	328a7343          	fmadd.d	ft6,fs4,fs0,ft6
    80003a1a:	7a89f443          	fmadd.d	fs0,fs3,fs0,fa5
    80003a1e:	5b8a7a43          	fmadd.d	fs4,fs4,fs8,fa1
    80003a22:	6389f9c3          	fmadd.d	fs3,fs3,fs8,fa2
    80003a26:	00fa0e33          	add	t3,s4,a5
    80003a2a:	2b10                	fld	fa2,16(a4)
    80003a2c:	2994                	fld	fa3,16(a1)
    80003a2e:	2a1c                	fld	fa5,16(a2)
    80003a30:	01053c87          	fld	fs9,16(a0)
    80003a34:	000e3c07          	fld	fs8,0(t3)
    80003a38:	008e3087          	fld	ft1,8(t3)
    80003a3c:	010e3007          	fld	ft0,16(t3)
    80003a40:	018e3507          	fld	fa0,24(t3)
    80003a44:	020e3587          	fld	fa1,32(t3)
    80003a48:	2b8672c3          	fmadd.d	ft5,fa2,fs8,ft5
    80003a4c:	22167243          	fmadd.d	ft4,fa2,ft1,ft4
    80003a50:	1a0671c3          	fmadd.d	ft3,fa2,ft0,ft3
    80003a54:	12a67143          	fmadd.d	ft2,fa2,fa0,ft2
    80003a58:	fadc7fc3          	fmadd.d	ft11,fs8,fa3,ft11
    80003a5c:	92b67643          	fmadd.d	fa2,fa2,fa1,fs2
    80003a60:	f2d0ff43          	fmadd.d	ft10,ft1,fa3,ft10
    80003a64:	ead07ec3          	fmadd.d	ft9,ft0,fa3,ft9
    80003a68:	e2d57e43          	fmadd.d	ft8,fa0,fa3,ft8
    80003a6c:	8afc78c3          	fmadd.d	fa7,fs8,fa5,fa7
    80003a70:	4ad5f6c3          	fmadd.d	fa3,fa1,fa3,fs1
    80003a74:	bb9c7c43          	fmadd.d	fs8,fs8,fs9,fs7
    80003a78:	82f0f843          	fmadd.d	fa6,ft1,fa5,fa6
    80003a7c:	3af073c3          	fmadd.d	ft7,ft0,fa5,ft7
    80003a80:	b390f0c3          	fmadd.d	ft1,ft1,fs9,fs6
    80003a84:	ab907043          	fmadd.d	ft0,ft0,fs9,fs5
    80003a88:	32f57343          	fmadd.d	ft6,fa0,fa5,ft6
    80003a8c:	42f5f7c3          	fmadd.d	fa5,fa1,fa5,fs0
    80003a90:	a3957543          	fmadd.d	fa0,fa0,fs9,fs4
    80003a94:	9b95f5c3          	fmadd.d	fa1,fa1,fs9,fs3
    80003a98:	01878e33          	add	t3,a5,s8
    80003a9c:	01873987          	fld	fs3,24(a4)
    80003aa0:	000e3b87          	fld	fs7,0(t3)
    80003aa4:	008e3b07          	fld	fs6,8(t3)
    80003aa8:	010e3a87          	fld	fs5,16(t3)
    80003aac:	018e3a07          	fld	fs4,24(t3)
    80003ab0:	020e3c87          	fld	fs9,32(t3)
    80003ab4:	0185b907          	fld	fs2,24(a1)
    80003ab8:	2e04                	fld	fs1,24(a2)
    80003aba:	2d00                	fld	fs0,24(a0)
    80003abc:	2b79f743          	fmadd.d	fa4,fs3,fs7,ft5
    80003ac0:	2369f243          	fmadd.d	ft4,fs3,fs6,ft4
    80003ac4:	1b59f1c3          	fmadd.d	ft3,fs3,fs5,ft3
    80003ac8:	1349f143          	fmadd.d	ft2,fs3,fs4,ft2
    80003acc:	fb2bffc3          	fmadd.d	ft11,fs7,fs2,ft11
    80003ad0:	6399f9c3          	fmadd.d	fs3,fs3,fs9,fa2
    80003ad4:	f32b7f43          	fmadd.d	ft10,fs6,fs2,ft10
    80003ad8:	eb2afec3          	fmadd.d	ft9,fs5,fs2,ft9
    80003adc:	e32a7e43          	fmadd.d	ft8,fs4,fs2,ft8
    80003ae0:	8a9bf8c3          	fmadd.d	fa7,fs7,fs1,fa7
    80003ae4:	6b2cf943          	fmadd.d	fs2,fs9,fs2,fa3
    80003ae8:	829b7843          	fmadd.d	fa6,fs6,fs1,fa6
    80003aec:	3a9af3c3          	fmadd.d	ft7,fs5,fs1,ft7
    80003af0:	329a7343          	fmadd.d	ft6,fs4,fs1,ft6
    80003af4:	c28bfbc3          	fmadd.d	fs7,fs7,fs0,fs8
    80003af8:	7a9cf4c3          	fmadd.d	fs1,fs9,fs1,fa5
    80003afc:	0a8b7b43          	fmadd.d	fs6,fs6,fs0,ft1
    80003b00:	028afac3          	fmadd.d	fs5,fs5,fs0,ft0
    80003b04:	528a7a43          	fmadd.d	fs4,fs4,fs0,fa0
    80003b08:	5a8cf443          	fmadd.d	fs0,fs9,fs0,fa1
    80003b0c:	00fc8e33          	add	t3,s9,a5
    80003b10:	318c                	fld	fa1,32(a1)
    80003b12:	3210                	fld	fa2,32(a2)
    80003b14:	3114                	fld	fa3,32(a0)
    80003b16:	331c                	fld	fa5,32(a4)
    80003b18:	008e3c07          	fld	fs8,8(t3)
    80003b1c:	010e3087          	fld	ft1,16(t3)
    80003b20:	018e3007          	fld	ft0,24(t3)
    80003b24:	020e3507          	fld	fa0,32(t3)
    80003b28:	000e3c87          	fld	fs9,0(t3)
    80003b2c:	2387f243          	fmadd.d	ft4,fa5,fs8,ft4
    80003b30:	1a17f1c3          	fmadd.d	ft3,fa5,ft1,ft3
    80003b34:	7397f2c3          	fmadd.d	ft5,fa5,fs9,fa4
    80003b38:	1207f143          	fmadd.d	ft2,fa5,ft0,ft2
    80003b3c:	f2bc7f43          	fmadd.d	ft10,fs8,fa1,ft10
    80003b40:	9aa7f7c3          	fmadd.d	fa5,fa5,fa0,fs3
    80003b44:	eab0fec3          	fmadd.d	ft9,ft1,fa1,ft9
    80003b48:	4ac579c3          	fmadd.d	fs3,fa0,fa2,fs1
    80003b4c:	e2b07e43          	fmadd.d	ft8,ft0,fa1,ft8
    80003b50:	92b57943          	fmadd.d	fs2,fa0,fa1,fs2
    80003b54:	82cc7843          	fmadd.d	fa6,fs8,fa2,fa6
    80003b58:	3ac0f3c3          	fmadd.d	ft7,ft1,fa2,ft7
    80003b5c:	32c07343          	fmadd.d	ft6,ft0,fa2,ft6
    80003b60:	b2dc7b43          	fmadd.d	fs6,fs8,fa3,fs6
    80003b64:	aad0fac3          	fmadd.d	fs5,ft1,fa3,fs5
    80003b68:	42d57c43          	fmadd.d	fs8,fa0,fa3,fs0
    80003b6c:	a2d07a43          	fmadd.d	fs4,ft0,fa3,fs4
    80003b70:	fabcffc3          	fmadd.d	ft11,fs9,fa1,ft11
    80003b74:	8accf8c3          	fmadd.d	fa7,fs9,fa2,fa7
    80003b78:	badcfbc3          	fmadd.d	fs7,fs9,fa3,fs7
    80003b7c:	01a78e33          	add	t3,a5,s10
    80003b80:	3714                	fld	fa3,40(a4)
    80003b82:	3598                	fld	fa4,40(a1)
    80003b84:	3604                	fld	fs1,40(a2)
    80003b86:	3500                	fld	fs0,40(a0)
    80003b88:	000e3087          	fld	ft1,0(t3)
    80003b8c:	008e3007          	fld	ft0,8(t3)
    80003b90:	010e3507          	fld	fa0,16(t3)
    80003b94:	018e3587          	fld	fa1,24(t3)
    80003b98:	020e3607          	fld	fa2,32(t3)
    80003b9c:	03070713          	addi	a4,a4,48
    80003ba0:	2a16f2c3          	fmadd.d	ft5,fa3,ft1,ft5
    80003ba4:	2206f243          	fmadd.d	ft4,fa3,ft0,ft4
    80003ba8:	1aa6f1c3          	fmadd.d	ft3,fa3,fa0,ft3
    80003bac:	12b6f143          	fmadd.d	ft2,fa3,fa1,ft2
    80003bb0:	fae0ffc3          	fmadd.d	ft11,ft1,fa4,ft11
    80003bb4:	7ac6f6c3          	fmadd.d	fa3,fa3,fa2,fa5
    80003bb8:	f2e07f43          	fmadd.d	ft10,ft0,fa4,ft10
    80003bbc:	eae57ec3          	fmadd.d	ft9,fa0,fa4,ft9
    80003bc0:	e2e5fe43          	fmadd.d	ft8,fa1,fa4,ft8
    80003bc4:	8a90f8c3          	fmadd.d	fa7,ft1,fs1,fa7
    80003bc8:	92e67743          	fmadd.d	fa4,fa2,fa4,fs2
    80003bcc:	82907843          	fmadd.d	fa6,ft0,fs1,fa6
    80003bd0:	3a9573c3          	fmadd.d	ft7,fa0,fs1,ft7
    80003bd4:	3295f343          	fmadd.d	ft6,fa1,fs1,ft6
    80003bd8:	9a9677c3          	fmadd.d	fa5,fa2,fs1,fs3
    80003bdc:	ba80f0c3          	fmadd.d	ft1,ft1,fs0,fs7
    80003be0:	b2807043          	fmadd.d	ft0,ft0,fs0,fs6
    80003be4:	aa857543          	fmadd.d	fa0,fa0,fs0,fs5
    80003be8:	a285f5c3          	fmadd.d	fa1,fa1,fs0,fs4
    80003bec:	c2867643          	fmadd.d	fa2,fa2,fs0,fs8
    80003bf0:	97ee                	add	a5,a5,s11
    80003bf2:	03058593          	addi	a1,a1,48
    80003bf6:	03060613          	addi	a2,a2,48
    80003bfa:	03050513          	addi	a0,a0,48
    80003bfe:	d52762e3          	bltu	a4,s2,80003942 <mm_cb+0x17f2>
    80003c02:	007e87b3          	add	a5,t4,t2
    80003c06:	09397563          	bgeu	s2,s3,80003c90 <mm_cb+0x1b40>
    80003c0a:	874a                	mv	a4,s2
    80003c0c:	009705b3          	add	a1,a4,s1
    80003c10:	00958633          	add	a2,a1,s1
    80003c14:	00960533          	add	a0,a2,s1
    80003c18:	00073987          	fld	fs3,0(a4)
    80003c1c:	0007bc07          	fld	fs8,0(a5)
    80003c20:	0087bb87          	fld	fs7,8(a5)
    80003c24:	0107bb07          	fld	fs6,16(a5)
    80003c28:	0187ba87          	fld	fs5,24(a5)
    80003c2c:	0207ba07          	fld	fs4,32(a5)
    80003c30:	0005b907          	fld	fs2,0(a1)
    80003c34:	2204                	fld	fs1,0(a2)
    80003c36:	2100                	fld	fs0,0(a0)
    80003c38:	0721                	addi	a4,a4,8
    80003c3a:	2b89f2c3          	fmadd.d	ft5,fs3,fs8,ft5
    80003c3e:	2379f243          	fmadd.d	ft4,fs3,fs7,ft4
    80003c42:	1b69f1c3          	fmadd.d	ft3,fs3,fs6,ft3
    80003c46:	1359f143          	fmadd.d	ft2,fs3,fs5,ft2
    80003c4a:	6b49f6c3          	fmadd.d	fa3,fs3,fs4,fa3
    80003c4e:	fb2c7fc3          	fmadd.d	ft11,fs8,fs2,ft11
    80003c52:	f32bff43          	fmadd.d	ft10,fs7,fs2,ft10
    80003c56:	eb2b7ec3          	fmadd.d	ft9,fs6,fs2,ft9
    80003c5a:	e32afe43          	fmadd.d	ft8,fs5,fs2,ft8
    80003c5e:	732a7743          	fmadd.d	fa4,fs4,fs2,fa4
    80003c62:	8a9c78c3          	fmadd.d	fa7,fs8,fs1,fa7
    80003c66:	829bf843          	fmadd.d	fa6,fs7,fs1,fa6
    80003c6a:	3a9b73c3          	fmadd.d	ft7,fs6,fs1,ft7
    80003c6e:	329af343          	fmadd.d	ft6,fs5,fs1,ft6
    80003c72:	7a9a77c3          	fmadd.d	fa5,fs4,fs1,fa5
    80003c76:	0a8c70c3          	fmadd.d	ft1,fs8,fs0,ft1
    80003c7a:	028bf043          	fmadd.d	ft0,fs7,fs0,ft0
    80003c7e:	528b7543          	fmadd.d	fa0,fs6,fs0,fa0
    80003c82:	5a8af5c3          	fmadd.d	fa1,fs5,fs0,fa1
    80003c86:	628a7643          	fmadd.d	fa2,fs4,fs0,fa2
    80003c8a:	97de                	add	a5,a5,s7
    80003c8c:	f93760e3          	bltu	a4,s3,80003c0c <mm_cb+0x1abc>
    80003c90:	00583027          	fsd	ft5,0(a6)
    80003c94:	00483427          	fsd	ft4,8(a6)
    80003c98:	00383827          	fsd	ft3,16(a6)
    80003c9c:	00283c27          	fsd	ft2,24(a6)
    80003ca0:	02d83027          	fsd	fa3,32(a6)
    80003ca4:	0df83427          	fsd	ft11,200(a6)
    80003ca8:	0de83827          	fsd	ft10,208(a6)
    80003cac:	0dd83c27          	fsd	ft9,216(a6)
    80003cb0:	0fc83027          	fsd	ft8,224(a6)
    80003cb4:	0ee83427          	fsd	fa4,232(a6)
    80003cb8:	19183827          	fsd	fa7,400(a6)
    80003cbc:	19083c27          	fsd	fa6,408(a6)
    80003cc0:	1a783027          	fsd	ft7,416(a6)
    80003cc4:	1a683427          	fsd	ft6,424(a6)
    80003cc8:	1af83827          	fsd	fa5,432(a6)
    80003ccc:	24183c27          	fsd	ft1,600(a6)
    80003cd0:	26083027          	fsd	ft0,608(a6)
    80003cd4:	26a83427          	fsd	fa0,616(a6)
    80003cd8:	26b83827          	fsd	fa1,624(a6)
    80003cdc:	26c83c27          	fsd	fa2,632(a6)
    80003ce0:	02838393          	addi	t2,t2,40
    80003ce4:	02880813          	addi	a6,a6,40
    80003ce8:	be7f1be3          	bne	t5,t2,800038de <mm_cb+0x178e>
    80003cec:	d8643023          	sd	t1,-640(s0)
    80003cf0:	d8543423          	sd	t0,-632(s0)
    80003cf4:	d9143823          	sd	a7,-624(s0)
    80003cf8:	d8d43c23          	sd	a3,-616(s0)
    80003cfc:	47e5                	li	a5,25
    80003cfe:	e03e                	sd	a5,0(sp)
    80003d00:	ef043803          	ld	a6,-272(s0)
    80003d04:	ef843703          	ld	a4,-264(s0)
    80003d08:	e2843603          	ld	a2,-472(s0)
    80003d0c:	064f8f93          	addi	t6,t6,100
    80003d10:	87fa                	mv	a5,t5
    80003d12:	dbe43023          	sd	t5,-608(s0)
    80003d16:	dff43023          	sd	t6,-544(s0)
    80003d1a:	4581                	li	a1,0
    80003d1c:	4511                	li	a0,4
    80003d1e:	ae2fe0ef          	jal	ra,80002000 <mm_naive>
    80003d22:	ed043783          	ld	a5,-304(s0)
    80003d26:	d9843683          	ld	a3,-616(s0)
    80003d2a:	d9043883          	ld	a7,-624(s0)
    80003d2e:	de043f83          	ld	t6,-544(s0)
    80003d32:	96be                	add	a3,a3,a5
    80003d34:	99be                	add	s3,s3,a5
    80003d36:	993e                	add	s2,s2,a5
    80003d38:	25800793          	li	a5,600
    80003d3c:	da043f03          	ld	t5,-608(s0)
    80003d40:	d8843283          	ld	t0,-632(s0)
    80003d44:	d8043303          	ld	t1,-640(s0)
    80003d48:	32088893          	addi	a7,a7,800
    80003d4c:	b8ff93e3          	bne	t6,a5,800038d2 <mm_cb+0x1782>
    80003d50:	de643023          	sd	t1,-544(s0)
    80003d54:	e1e43c23          	sd	t5,-488(s0)
    80003d58:	4765                	li	a4,25
    80003d5a:	e03a                	sd	a4,0(sp)
    80003d5c:	6705                	lui	a4,0x1
    80003d5e:	87d6                	mv	a5,s5
    80003d60:	2c070713          	addi	a4,a4,704 # 12c0 <buflen.1+0x1240>
    80003d64:	00e788b3          	add	a7,a5,a4
    80003d68:	ef043803          	ld	a6,-272(s0)
    80003d6c:	ee043783          	ld	a5,-288(s0)
    80003d70:	ef843703          	ld	a4,-264(s0)
    80003d74:	e9043683          	ld	a3,-368(s0)
    80003d78:	e2843603          	ld	a2,-472(s0)
    80003d7c:	45e5                	li	a1,25
    80003d7e:	4501                	li	a0,0
    80003d80:	8a96                	mv	s5,t0
    80003d82:	a7efe0ef          	jal	ra,80002000 <mm_naive>
    80003d86:	de043303          	ld	t1,-544(s0)
    80003d8a:	e1843f03          	ld	t5,-488(s0)
    80003d8e:	d45fe06f          	j	80002ad2 <mm_cb+0x982>
    80003d92:	ea843783          	ld	a5,-344(s0)
    80003d96:	f0843703          	ld	a4,-248(s0)
    80003d9a:	97f6                	add	a5,a5,t4
    80003d9c:	e8f43823          	sd	a5,-368(s0)
    80003da0:	e8043783          	ld	a5,-384(s0)
    80003da4:	00f77463          	bgeu	a4,a5,80003dac <mm_cb+0x1c5c>
    80003da8:	d59fe06f          	j	80002b00 <mm_cb+0x9b0>
    80003dac:	f0043783          	ld	a5,-256(s0)
    80003db0:	ed843703          	ld	a4,-296(s0)
    80003db4:	0c61                	addi	s8,s8,24
    80003db6:	e9043e83          	ld	t4,-368(s0)
    80003dba:	00e788b3          	add	a7,a5,a4
    80003dbe:	f2843783          	ld	a5,-216(s0)
    80003dc2:	f1143023          	sd	a7,-256(s0)
    80003dc6:	00fc7463          	bgeu	s8,a5,80003dce <mm_cb+0x1c7e>
    80003dca:	825fe06f          	j	800025ee <mm_cb+0x49e>
    80003dce:	ac8ff06f          	j	80003096 <mm_cb+0xf46>
    80003dd2:	f1843783          	ld	a5,-232(s0)
    80003dd6:	c399                	beqz	a5,80003ddc <mm_cb+0x1c8c>
    80003dd8:	d38fe06f          	j	80002310 <mm_cb+0x1c0>
    80003ddc:	eb843783          	ld	a5,-328(s0)
    80003de0:	a40786e3          	beqz	a5,8000382c <mm_cb+0x16dc>
    80003de4:	a40b04e3          	beqz	s6,8000382c <mm_cb+0x16dc>
    80003de8:	00251693          	slli	a3,a0,0x2
    80003dec:	00171593          	slli	a1,a4,0x1
    80003df0:	00151493          	slli	s1,a0,0x1
    80003df4:	96aa                	add	a3,a3,a0
    80003df6:	00181793          	slli	a5,a6,0x1
    80003dfa:	00a48633          	add	a2,s1,a0
    80003dfe:	95ba                	add	a1,a1,a4
    80003e00:	068e                	slli	a3,a3,0x3
    80003e02:	eaf43023          	sd	a5,-352(s0)
    80003e06:	00359b93          	slli	s7,a1,0x3
    80003e0a:	97c2                	add	a5,a5,a6
    80003e0c:	00351593          	slli	a1,a0,0x3
    80003e10:	e4d43423          	sd	a3,-440(s0)
    80003e14:	00461693          	slli	a3,a2,0x4
    80003e18:	e6b43023          	sd	a1,-416(s0)
    80003e1c:	e4d43023          	sd	a3,-448(s0)
    80003e20:	00451593          	slli	a1,a0,0x4
    80003e24:	00381693          	slli	a3,a6,0x3
    80003e28:	00379893          	slli	a7,a5,0x3
    80003e2c:	00571793          	slli	a5,a4,0x5
    80003e30:	e4b43c23          	sd	a1,-424(s0)
    80003e34:	f0d43823          	sd	a3,-240(s0)
    80003e38:	00361593          	slli	a1,a2,0x3
    80003e3c:	00481693          	slli	a3,a6,0x4
    80003e40:	ecf43823          	sd	a5,-304(s0)
    80003e44:	00581793          	slli	a5,a6,0x5
    80003e48:	00471e93          	slli	t4,a4,0x4
    80003e4c:	e4b43823          	sd	a1,-432(s0)
    80003e50:	00551c93          	slli	s9,a0,0x5
    80003e54:	00371313          	slli	t1,a4,0x3
    80003e58:	eed43823          	sd	a3,-272(s0)
    80003e5c:	e8f43c23          	sd	a5,-360(s0)
    80003e60:	a8cff06f          	j	800030ec <mm_cb+0xf9c>

0000000080003e64 <mm>:
    80003e64:	710d                	addi	sp,sp,-352
    80003e66:	8faa                	mv	t6,a0
    80003e68:	ee86                	sd	ra,344(sp)
    80003e6a:	eaa2                	sd	s0,336(sp)
    80003e6c:	e6a6                	sd	s1,328(sp)
    80003e6e:	e2ca                	sd	s2,320(sp)
    80003e70:	fe4e                	sd	s3,312(sp)
    80003e72:	fa52                	sd	s4,304(sp)
    80003e74:	f656                	sd	s5,296(sp)
    80003e76:	f25a                	sd	s6,288(sp)
    80003e78:	ee5e                	sd	s7,280(sp)
    80003e7a:	ea62                	sd	s8,272(sp)
    80003e7c:	e666                	sd	s9,264(sp)
    80003e7e:	e26a                	sd	s10,256(sp)
    80003e80:	fdee                	sd	s11,248(sp)
    80003e82:	b5a2                	fsd	fs0,232(sp)
    80003e84:	b1a6                	fsd	fs1,224(sp)
    80003e86:	adca                	fsd	fs2,216(sp)
    80003e88:	a9ce                	fsd	fs3,208(sp)
    80003e8a:	a5d2                	fsd	fs4,200(sp)
    80003e8c:	a1d6                	fsd	fs5,192(sp)
    80003e8e:	bd5a                	fsd	fs6,184(sp)
    80003e90:	b95e                	fsd	fs7,176(sp)
    80003e92:	b562                	fsd	fs8,168(sp)
    80003e94:	b166                	fsd	fs9,160(sp)
    80003e96:	03000313          	li	t1,48
    80003e9a:	f83a                	sd	a4,48(sp)
    80003e9c:	7516                	ld	a0,352(sp)
    80003e9e:	8f36                	mv	t5,a3
    80003ea0:	57f36363          	bltu	t1,t6,80004406 <mm+0x5a2>
    80003ea4:	8e3a                	mv	t3,a4
    80003ea6:	03200713          	li	a4,50
    80003eaa:	54b76e63          	bltu	a4,a1,80004406 <mm+0x5a2>
    80003eae:	54c36c63          	bltu	t1,a2,80004406 <mm+0x5a2>
    80003eb2:	4715                	li	a4,5
    80003eb4:	02e5d6b3          	divu	a3,a1,a4
    80003eb8:	ffcff493          	andi	s1,t6,-4
    80003ebc:	fc26                	sd	s1,56(sp)
    80003ebe:	00351313          	slli	t1,a0,0x3
    80003ec2:	003e1413          	slli	s0,t3,0x3
    80003ec6:	00269d13          	slli	s10,a3,0x2
    80003eca:	9d36                	add	s10,s10,a3
    80003ecc:	4e048863          	beqz	s1,800043bc <mm+0x558>
    80003ed0:	4c99                	li	s9,6
    80003ed2:	03965cb3          	divu	s9,a2,s9
    80003ed6:	00181a13          	slli	s4,a6,0x1
    80003eda:	9a42                	add	s4,s4,a6
    80003edc:	004a1b13          	slli	s6,s4,0x4
    80003ee0:	003d1693          	slli	a3,s10,0x3
    80003ee4:	00281a93          	slli	s5,a6,0x2
    80003ee8:	9ac2                	add	s5,s5,a6
    80003eea:	fcb6                	sd	a3,120(sp)
    80003eec:	00361993          	slli	s3,a2,0x3
    80003ef0:	96be                	add	a3,a3,a5
    80003ef2:	005e1e93          	slli	t4,t3,0x5
    80003ef6:	00551e13          	slli	t3,a0,0x5
    80003efa:	f4b6                	sd	a3,104(sp)
    80003efc:	f8f2                	sd	t3,112(sp)
    80003efe:	00381493          	slli	s1,a6,0x3
    80003f02:	00481c13          	slli	s8,a6,0x4
    80003f06:	0a0e                	slli	s4,s4,0x3
    80003f08:	00581b93          	slli	s7,a6,0x5
    80003f0c:	0a8e                	slli	s5,s5,0x3
    80003f0e:	86fa                	mv	a3,t5
    80003f10:	99fa                	add	s3,s3,t5
    80003f12:	8dc6                	mv	s11,a7
    80003f14:	4e01                	li	t3,0
    80003f16:	e57e                	sd	t6,136(sp)
    80003f18:	e0ae                	sd	a1,64(sp)
    80003f1a:	e4b2                	sd	a2,72(sp)
    80003f1c:	e97a                	sd	t5,144(sp)
    80003f1e:	e13e                	sd	a5,128(sp)
    80003f20:	e8c2                	sd	a6,80(sp)
    80003f22:	ed46                	sd	a7,152(sp)
    80003f24:	ecaa                	sd	a0,88(sp)
    80003f26:	02e5f733          	remu	a4,a1,a4
    80003f2a:	001c9913          	slli	s2,s9,0x1
    80003f2e:	9966                	add	s2,s2,s9
    80003f30:	0912                	slli	s2,s2,0x4
    80003f32:	997a                	add	s2,s2,t5
    80003f34:	039b0cb3          	mul	s9,s6,s9
    80003f38:	f0ba                	sd	a4,96(sp)
    80003f3a:	6786                	ld	a5,64(sp)
    80003f3c:	4711                	li	a4,4
    80003f3e:	42f77963          	bgeu	a4,a5,80004370 <mm+0x50c>
    80003f42:	006d8f33          	add	t5,s11,t1
    80003f46:	638a                	ld	t2,128(sp)
    80003f48:	006f08b3          	add	a7,t5,t1
    80003f4c:	006882b3          	add	t0,a7,t1
    80003f50:	8fee                	mv	t6,s11
    80003f52:	4081                	li	ra,0
    80003f54:	000fb287          	fld	ft5,0(t6)
    80003f58:	008fb207          	fld	ft4,8(t6)
    80003f5c:	010fb187          	fld	ft3,16(t6)
    80003f60:	018fb107          	fld	ft2,24(t6)
    80003f64:	020fb687          	fld	fa3,32(t6)
    80003f68:	000f3f87          	fld	ft11,0(t5)
    80003f6c:	008f3f07          	fld	ft10,8(t5)
    80003f70:	010f3e87          	fld	ft9,16(t5)
    80003f74:	018f3e07          	fld	ft8,24(t5)
    80003f78:	020f3707          	fld	fa4,32(t5)
    80003f7c:	0008b887          	fld	fa7,0(a7)
    80003f80:	0088b807          	fld	fa6,8(a7)
    80003f84:	0108b387          	fld	ft7,16(a7)
    80003f88:	0188b307          	fld	ft6,24(a7)
    80003f8c:	0208b787          	fld	fa5,32(a7)
    80003f90:	0002b087          	fld	ft1,0(t0)
    80003f94:	0082b007          	fld	ft0,8(t0)
    80003f98:	0102b507          	fld	fa0,16(t0)
    80003f9c:	0182b587          	fld	fa1,24(t0)
    80003fa0:	0202b607          	fld	fa2,32(t0)
    80003fa4:	879e                	mv	a5,t2
    80003fa6:	2d26f963          	bgeu	a3,s2,80004278 <mm+0x414>
    80003faa:	008685b3          	add	a1,a3,s0
    80003fae:	00858633          	add	a2,a1,s0
    80003fb2:	00860533          	add	a0,a2,s0
    80003fb6:	8736                	mv	a4,a3
    80003fb8:	00073c07          	fld	fs8,0(a4)
    80003fbc:	0005bb87          	fld	fs7,0(a1)
    80003fc0:	00063b07          	fld	fs6,0(a2)
    80003fc4:	2100                	fld	fs0,0(a0)
    80003fc6:	0007ba87          	fld	fs5,0(a5)
    80003fca:	0087ba07          	fld	fs4,8(a5)
    80003fce:	0107b987          	fld	fs3,16(a5)
    80003fd2:	0187b907          	fld	fs2,24(a5)
    80003fd6:	3384                	fld	fs1,32(a5)
    80003fd8:	0a8af0c3          	fmadd.d	ft1,fs5,fs0,ft1
    80003fdc:	028a7043          	fmadd.d	ft0,fs4,fs0,ft0
    80003fe0:	6a9c76c3          	fmadd.d	fa3,fs8,fs1,fa3
    80003fe4:	7374f743          	fmadd.d	fa4,fs1,fs7,fa4
    80003fe8:	7b64f7c3          	fmadd.d	fa5,fs1,fs6,fa5
    80003fec:	5289f543          	fmadd.d	fa0,fs3,fs0,fa0
    80003ff0:	5a8975c3          	fmadd.d	fa1,fs2,fs0,fa1
    80003ff4:	6284f643          	fmadd.d	fa2,fs1,fs0,fa2
    80003ff8:	2b5c72c3          	fmadd.d	ft5,fs8,fs5,ft5
    80003ffc:	234c7243          	fmadd.d	ft4,fs8,fs4,ft4
    80004000:	1b3c71c3          	fmadd.d	ft3,fs8,fs3,ft3
    80004004:	132c7143          	fmadd.d	ft2,fs8,fs2,ft2
    80004008:	fb7affc3          	fmadd.d	ft11,fs5,fs7,ft11
    8000400c:	f37a7f43          	fmadd.d	ft10,fs4,fs7,ft10
    80004010:	eb79fec3          	fmadd.d	ft9,fs3,fs7,ft9
    80004014:	e3797e43          	fmadd.d	ft8,fs2,fs7,ft8
    80004018:	8b6af8c3          	fmadd.d	fa7,fs5,fs6,fa7
    8000401c:	836a7843          	fmadd.d	fa6,fs4,fs6,fa6
    80004020:	3b69f3c3          	fmadd.d	ft7,fs3,fs6,ft7
    80004024:	33697343          	fmadd.d	ft6,fs2,fs6,ft6
    80004028:	00f48833          	add	a6,s1,a5
    8000402c:	00853c07          	fld	fs8,8(a0)
    80004030:	00873907          	fld	fs2,8(a4)
    80004034:	2584                	fld	fs1,8(a1)
    80004036:	2600                	fld	fs0,8(a2)
    80004038:	00083b87          	fld	fs7,0(a6)
    8000403c:	00883b07          	fld	fs6,8(a6)
    80004040:	01083a87          	fld	fs5,16(a6)
    80004044:	01883a07          	fld	fs4,24(a6)
    80004048:	02083987          	fld	fs3,32(a6)
    8000404c:	2b7972c3          	fmadd.d	ft5,fs2,fs7,ft5
    80004050:	23697243          	fmadd.d	ft4,fs2,fs6,ft4
    80004054:	1b5971c3          	fmadd.d	ft3,fs2,fs5,ft3
    80004058:	13497143          	fmadd.d	ft2,fs2,fs4,ft2
    8000405c:	fa9bffc3          	fmadd.d	ft11,fs7,fs1,ft11
    80004060:	6b397943          	fmadd.d	fs2,fs2,fs3,fa3
    80004064:	f29b7f43          	fmadd.d	ft10,fs6,fs1,ft10
    80004068:	ea9afec3          	fmadd.d	ft9,fs5,fs1,ft9
    8000406c:	e29a7e43          	fmadd.d	ft8,fs4,fs1,ft8
    80004070:	8a8bf8c3          	fmadd.d	fa7,fs7,fs0,fa7
    80004074:	7299f4c3          	fmadd.d	fs1,fs3,fs1,fa4
    80004078:	0b8bfbc3          	fmadd.d	fs7,fs7,fs8,ft1
    8000407c:	828b7843          	fmadd.d	fa6,fs6,fs0,fa6
    80004080:	3a8af3c3          	fmadd.d	ft7,fs5,fs0,ft7
    80004084:	038b7b43          	fmadd.d	fs6,fs6,fs8,ft0
    80004088:	538afac3          	fmadd.d	fs5,fs5,fs8,fa0
    8000408c:	328a7343          	fmadd.d	ft6,fs4,fs0,ft6
    80004090:	7a89f443          	fmadd.d	fs0,fs3,fs0,fa5
    80004094:	5b8a7a43          	fmadd.d	fs4,fs4,fs8,fa1
    80004098:	6389f9c3          	fmadd.d	fs3,fs3,fs8,fa2
    8000409c:	00fc0833          	add	a6,s8,a5
    800040a0:	2b10                	fld	fa2,16(a4)
    800040a2:	2994                	fld	fa3,16(a1)
    800040a4:	2a1c                	fld	fa5,16(a2)
    800040a6:	01053c87          	fld	fs9,16(a0)
    800040aa:	00083c07          	fld	fs8,0(a6)
    800040ae:	00883087          	fld	ft1,8(a6)
    800040b2:	01083007          	fld	ft0,16(a6)
    800040b6:	01883507          	fld	fa0,24(a6)
    800040ba:	02083587          	fld	fa1,32(a6)
    800040be:	2b8672c3          	fmadd.d	ft5,fa2,fs8,ft5
    800040c2:	22167243          	fmadd.d	ft4,fa2,ft1,ft4
    800040c6:	1a0671c3          	fmadd.d	ft3,fa2,ft0,ft3
    800040ca:	12a67143          	fmadd.d	ft2,fa2,fa0,ft2
    800040ce:	fadc7fc3          	fmadd.d	ft11,fs8,fa3,ft11
    800040d2:	92b67643          	fmadd.d	fa2,fa2,fa1,fs2
    800040d6:	f2d0ff43          	fmadd.d	ft10,ft1,fa3,ft10
    800040da:	ead07ec3          	fmadd.d	ft9,ft0,fa3,ft9
    800040de:	e2d57e43          	fmadd.d	ft8,fa0,fa3,ft8
    800040e2:	8afc78c3          	fmadd.d	fa7,fs8,fa5,fa7
    800040e6:	4ad5f6c3          	fmadd.d	fa3,fa1,fa3,fs1
    800040ea:	bb9c7c43          	fmadd.d	fs8,fs8,fs9,fs7
    800040ee:	82f0f843          	fmadd.d	fa6,ft1,fa5,fa6
    800040f2:	3af073c3          	fmadd.d	ft7,ft0,fa5,ft7
    800040f6:	b390f0c3          	fmadd.d	ft1,ft1,fs9,fs6
    800040fa:	ab907043          	fmadd.d	ft0,ft0,fs9,fs5
    800040fe:	32f57343          	fmadd.d	ft6,fa0,fa5,ft6
    80004102:	42f5f7c3          	fmadd.d	fa5,fa1,fa5,fs0
    80004106:	a3957543          	fmadd.d	fa0,fa0,fs9,fs4
    8000410a:	9b95f5c3          	fmadd.d	fa1,fa1,fs9,fs3
    8000410e:	01478833          	add	a6,a5,s4
    80004112:	01873987          	fld	fs3,24(a4)
    80004116:	00083b87          	fld	fs7,0(a6)
    8000411a:	00883b07          	fld	fs6,8(a6)
    8000411e:	01083a87          	fld	fs5,16(a6)
    80004122:	01883a07          	fld	fs4,24(a6)
    80004126:	02083c87          	fld	fs9,32(a6)
    8000412a:	0185b907          	fld	fs2,24(a1)
    8000412e:	2e04                	fld	fs1,24(a2)
    80004130:	2d00                	fld	fs0,24(a0)
    80004132:	2b79f743          	fmadd.d	fa4,fs3,fs7,ft5
    80004136:	2369f243          	fmadd.d	ft4,fs3,fs6,ft4
    8000413a:	1b59f1c3          	fmadd.d	ft3,fs3,fs5,ft3
    8000413e:	1349f143          	fmadd.d	ft2,fs3,fs4,ft2
    80004142:	fb2bffc3          	fmadd.d	ft11,fs7,fs2,ft11
    80004146:	6399f9c3          	fmadd.d	fs3,fs3,fs9,fa2
    8000414a:	f32b7f43          	fmadd.d	ft10,fs6,fs2,ft10
    8000414e:	eb2afec3          	fmadd.d	ft9,fs5,fs2,ft9
    80004152:	e32a7e43          	fmadd.d	ft8,fs4,fs2,ft8
    80004156:	8a9bf8c3          	fmadd.d	fa7,fs7,fs1,fa7
    8000415a:	6b2cf943          	fmadd.d	fs2,fs9,fs2,fa3
    8000415e:	829b7843          	fmadd.d	fa6,fs6,fs1,fa6
    80004162:	3a9af3c3          	fmadd.d	ft7,fs5,fs1,ft7
    80004166:	329a7343          	fmadd.d	ft6,fs4,fs1,ft6
    8000416a:	c28bfbc3          	fmadd.d	fs7,fs7,fs0,fs8
    8000416e:	7a9cf4c3          	fmadd.d	fs1,fs9,fs1,fa5
    80004172:	0a8b7b43          	fmadd.d	fs6,fs6,fs0,ft1
    80004176:	028afac3          	fmadd.d	fs5,fs5,fs0,ft0
    8000417a:	528a7a43          	fmadd.d	fs4,fs4,fs0,fa0
    8000417e:	5a8cf443          	fmadd.d	fs0,fs9,fs0,fa1
    80004182:	00fb8833          	add	a6,s7,a5
    80004186:	318c                	fld	fa1,32(a1)
    80004188:	3210                	fld	fa2,32(a2)
    8000418a:	3114                	fld	fa3,32(a0)
    8000418c:	331c                	fld	fa5,32(a4)
    8000418e:	00883c07          	fld	fs8,8(a6)
    80004192:	01083087          	fld	ft1,16(a6)
    80004196:	01883007          	fld	ft0,24(a6)
    8000419a:	02083507          	fld	fa0,32(a6)
    8000419e:	00083c87          	fld	fs9,0(a6)
    800041a2:	2387f243          	fmadd.d	ft4,fa5,fs8,ft4
    800041a6:	1a17f1c3          	fmadd.d	ft3,fa5,ft1,ft3
    800041aa:	7397f2c3          	fmadd.d	ft5,fa5,fs9,fa4
    800041ae:	1207f143          	fmadd.d	ft2,fa5,ft0,ft2
    800041b2:	f2bc7f43          	fmadd.d	ft10,fs8,fa1,ft10
    800041b6:	9aa7f7c3          	fmadd.d	fa5,fa5,fa0,fs3
    800041ba:	eab0fec3          	fmadd.d	ft9,ft1,fa1,ft9
    800041be:	4ac579c3          	fmadd.d	fs3,fa0,fa2,fs1
    800041c2:	e2b07e43          	fmadd.d	ft8,ft0,fa1,ft8
    800041c6:	92b57943          	fmadd.d	fs2,fa0,fa1,fs2
    800041ca:	82cc7843          	fmadd.d	fa6,fs8,fa2,fa6
    800041ce:	3ac0f3c3          	fmadd.d	ft7,ft1,fa2,ft7
    800041d2:	32c07343          	fmadd.d	ft6,ft0,fa2,ft6
    800041d6:	b2dc7b43          	fmadd.d	fs6,fs8,fa3,fs6
    800041da:	aad0fac3          	fmadd.d	fs5,ft1,fa3,fs5
    800041de:	42d57c43          	fmadd.d	fs8,fa0,fa3,fs0
    800041e2:	a2d07a43          	fmadd.d	fs4,ft0,fa3,fs4
    800041e6:	fabcffc3          	fmadd.d	ft11,fs9,fa1,ft11
    800041ea:	8accf8c3          	fmadd.d	fa7,fs9,fa2,fa7
    800041ee:	badcfbc3          	fmadd.d	fs7,fs9,fa3,fs7
    800041f2:	01578833          	add	a6,a5,s5
    800041f6:	3714                	fld	fa3,40(a4)
    800041f8:	3598                	fld	fa4,40(a1)
    800041fa:	3604                	fld	fs1,40(a2)
    800041fc:	3500                	fld	fs0,40(a0)
    800041fe:	00083087          	fld	ft1,0(a6)
    80004202:	00883007          	fld	ft0,8(a6)
    80004206:	01083507          	fld	fa0,16(a6)
    8000420a:	01883587          	fld	fa1,24(a6)
    8000420e:	02083607          	fld	fa2,32(a6)
    80004212:	03070713          	addi	a4,a4,48
    80004216:	2a16f2c3          	fmadd.d	ft5,fa3,ft1,ft5
    8000421a:	2206f243          	fmadd.d	ft4,fa3,ft0,ft4
    8000421e:	1aa6f1c3          	fmadd.d	ft3,fa3,fa0,ft3
    80004222:	12b6f143          	fmadd.d	ft2,fa3,fa1,ft2
    80004226:	fae0ffc3          	fmadd.d	ft11,ft1,fa4,ft11
    8000422a:	7ac6f6c3          	fmadd.d	fa3,fa3,fa2,fa5
    8000422e:	f2e07f43          	fmadd.d	ft10,ft0,fa4,ft10
    80004232:	eae57ec3          	fmadd.d	ft9,fa0,fa4,ft9
    80004236:	e2e5fe43          	fmadd.d	ft8,fa1,fa4,ft8
    8000423a:	8a90f8c3          	fmadd.d	fa7,ft1,fs1,fa7
    8000423e:	92e67743          	fmadd.d	fa4,fa2,fa4,fs2
    80004242:	82907843          	fmadd.d	fa6,ft0,fs1,fa6
    80004246:	3a9573c3          	fmadd.d	ft7,fa0,fs1,ft7
    8000424a:	3295f343          	fmadd.d	ft6,fa1,fs1,ft6
    8000424e:	9a9677c3          	fmadd.d	fa5,fa2,fs1,fs3
    80004252:	ba80f0c3          	fmadd.d	ft1,ft1,fs0,fs7
    80004256:	b2807043          	fmadd.d	ft0,ft0,fs0,fs6
    8000425a:	aa857543          	fmadd.d	fa0,fa0,fs0,fs5
    8000425e:	a285f5c3          	fmadd.d	fa1,fa1,fs0,fs4
    80004262:	c2867643          	fmadd.d	fa2,fa2,fs0,fs8
    80004266:	97da                	add	a5,a5,s6
    80004268:	03058593          	addi	a1,a1,48
    8000426c:	03060613          	addi	a2,a2,48
    80004270:	03050513          	addi	a0,a0,48
    80004274:	d52762e3          	bltu	a4,s2,80003fb8 <mm+0x154>
    80004278:	007c87b3          	add	a5,s9,t2
    8000427c:	09397563          	bgeu	s2,s3,80004306 <mm+0x4a2>
    80004280:	874a                	mv	a4,s2
    80004282:	008705b3          	add	a1,a4,s0
    80004286:	00858633          	add	a2,a1,s0
    8000428a:	00860533          	add	a0,a2,s0
    8000428e:	00073987          	fld	fs3,0(a4)
    80004292:	0007bc07          	fld	fs8,0(a5)
    80004296:	0087bb87          	fld	fs7,8(a5)
    8000429a:	0107bb07          	fld	fs6,16(a5)
    8000429e:	0187ba87          	fld	fs5,24(a5)
    800042a2:	0207ba07          	fld	fs4,32(a5)
    800042a6:	0005b907          	fld	fs2,0(a1)
    800042aa:	2204                	fld	fs1,0(a2)
    800042ac:	2100                	fld	fs0,0(a0)
    800042ae:	0721                	addi	a4,a4,8
    800042b0:	2b89f2c3          	fmadd.d	ft5,fs3,fs8,ft5
    800042b4:	2379f243          	fmadd.d	ft4,fs3,fs7,ft4
    800042b8:	1b69f1c3          	fmadd.d	ft3,fs3,fs6,ft3
    800042bc:	1359f143          	fmadd.d	ft2,fs3,fs5,ft2
    800042c0:	6b49f6c3          	fmadd.d	fa3,fs3,fs4,fa3
    800042c4:	fb2c7fc3          	fmadd.d	ft11,fs8,fs2,ft11
    800042c8:	f32bff43          	fmadd.d	ft10,fs7,fs2,ft10
    800042cc:	eb2b7ec3          	fmadd.d	ft9,fs6,fs2,ft9
    800042d0:	e32afe43          	fmadd.d	ft8,fs5,fs2,ft8
    800042d4:	732a7743          	fmadd.d	fa4,fs4,fs2,fa4
    800042d8:	8a9c78c3          	fmadd.d	fa7,fs8,fs1,fa7
    800042dc:	829bf843          	fmadd.d	fa6,fs7,fs1,fa6
    800042e0:	3a9b73c3          	fmadd.d	ft7,fs6,fs1,ft7
    800042e4:	329af343          	fmadd.d	ft6,fs5,fs1,ft6
    800042e8:	7a9a77c3          	fmadd.d	fa5,fs4,fs1,fa5
    800042ec:	0a8c70c3          	fmadd.d	ft1,fs8,fs0,ft1
    800042f0:	028bf043          	fmadd.d	ft0,fs7,fs0,ft0
    800042f4:	528b7543          	fmadd.d	fa0,fs6,fs0,fa0
    800042f8:	5a8af5c3          	fmadd.d	fa1,fs5,fs0,fa1
    800042fc:	628a7643          	fmadd.d	fa2,fs4,fs0,fa2
    80004300:	97a6                	add	a5,a5,s1
    80004302:	f93760e3          	bltu	a4,s3,80004282 <mm+0x41e>
    80004306:	005fb027          	fsd	ft5,0(t6)
    8000430a:	004fb427          	fsd	ft4,8(t6)
    8000430e:	003fb827          	fsd	ft3,16(t6)
    80004312:	002fbc27          	fsd	ft2,24(t6)
    80004316:	02dfb027          	fsd	fa3,32(t6)
    8000431a:	01ff3027          	fsd	ft11,0(t5)
    8000431e:	01ef3427          	fsd	ft10,8(t5)
    80004322:	01df3827          	fsd	ft9,16(t5)
    80004326:	01cf3c27          	fsd	ft8,24(t5)
    8000432a:	02ef3027          	fsd	fa4,32(t5)
    8000432e:	0118b027          	fsd	fa7,0(a7)
    80004332:	0108b427          	fsd	fa6,8(a7)
    80004336:	0078b827          	fsd	ft7,16(a7)
    8000433a:	0068bc27          	fsd	ft6,24(a7)
    8000433e:	02f8b027          	fsd	fa5,32(a7)
    80004342:	0012b027          	fsd	ft1,0(t0)
    80004346:	0002b427          	fsd	ft0,8(t0)
    8000434a:	00a2b827          	fsd	fa0,16(t0)
    8000434e:	00b2bc27          	fsd	fa1,24(t0)
    80004352:	02c2b027          	fsd	fa2,32(t0)
    80004356:	0095                	addi	ra,ra,5
    80004358:	028f8f93          	addi	t6,t6,40
    8000435c:	028f0f13          	addi	t5,t5,40
    80004360:	02888893          	addi	a7,a7,40
    80004364:	02828293          	addi	t0,t0,40
    80004368:	02838393          	addi	t2,t2,40
    8000436c:	bfa0e4e3          	bltu	ra,s10,80003f54 <mm+0xf0>
    80004370:	77e6                	ld	a5,120(sp)
    80004372:	6846                	ld	a6,80(sp)
    80004374:	7742                	ld	a4,48(sp)
    80004376:	01b788b3          	add	a7,a5,s11
    8000437a:	67e6                	ld	a5,88(sp)
    8000437c:	6626                	ld	a2,72(sp)
    8000437e:	7586                	ld	a1,96(sp)
    80004380:	e03e                	sd	a5,0(sp)
    80004382:	77a6                	ld	a5,104(sp)
    80004384:	0e11                	addi	t3,t3,4
    80004386:	4511                	li	a0,4
    80004388:	f41a                	sd	t1,40(sp)
    8000438a:	f076                	sd	t4,32(sp)
    8000438c:	ec36                	sd	a3,24(sp)
    8000438e:	e872                	sd	t3,16(sp)
    80004390:	c71fd0ef          	jal	ra,80002000 <mm_naive>
    80004394:	77c6                	ld	a5,112(sp)
    80004396:	7e82                	ld	t4,32(sp)
    80004398:	66e2                	ld	a3,24(sp)
    8000439a:	9dbe                	add	s11,s11,a5
    8000439c:	6e42                	ld	t3,16(sp)
    8000439e:	77e2                	ld	a5,56(sp)
    800043a0:	7322                	ld	t1,40(sp)
    800043a2:	96f6                	add	a3,a3,t4
    800043a4:	99f6                	add	s3,s3,t4
    800043a6:	9976                	add	s2,s2,t4
    800043a8:	b8fe69e3          	bltu	t3,a5,80003f3a <mm+0xd6>
    800043ac:	6faa                	ld	t6,136(sp)
    800043ae:	6586                	ld	a1,64(sp)
    800043b0:	6626                	ld	a2,72(sp)
    800043b2:	6f4a                	ld	t5,144(sp)
    800043b4:	678a                	ld	a5,128(sp)
    800043b6:	6846                	ld	a6,80(sp)
    800043b8:	68ea                	ld	a7,152(sp)
    800043ba:	6566                	ld	a0,88(sp)
    800043bc:	76e2                	ld	a3,56(sp)
    800043be:	f2aa                	sd	a0,352(sp)
    800043c0:	7742                	ld	a4,48(sp)
    800043c2:	02668333          	mul	t1,a3,t1
    800043c6:	40df8533          	sub	a0,t6,a3
    800043ca:	60f6                	ld	ra,344(sp)
    800043cc:	64b6                	ld	s1,328(sp)
    800043ce:	6916                	ld	s2,320(sp)
    800043d0:	79f2                	ld	s3,312(sp)
    800043d2:	7a52                	ld	s4,304(sp)
    800043d4:	7ab2                	ld	s5,296(sp)
    800043d6:	7b12                	ld	s6,288(sp)
    800043d8:	6bf2                	ld	s7,280(sp)
    800043da:	028686b3          	mul	a3,a3,s0
    800043de:	6456                	ld	s0,336(sp)
    800043e0:	6c52                	ld	s8,272(sp)
    800043e2:	6cb2                	ld	s9,264(sp)
    800043e4:	6d12                	ld	s10,256(sp)
    800043e6:	7dee                	ld	s11,248(sp)
    800043e8:	342e                	fld	fs0,232(sp)
    800043ea:	348e                	fld	fs1,224(sp)
    800043ec:	296e                	fld	fs2,216(sp)
    800043ee:	29ce                	fld	fs3,208(sp)
    800043f0:	2a2e                	fld	fs4,200(sp)
    800043f2:	2a8e                	fld	fs5,192(sp)
    800043f4:	3b6a                	fld	fs6,184(sp)
    800043f6:	3bca                	fld	fs7,176(sp)
    800043f8:	3c2a                	fld	fs8,168(sp)
    800043fa:	3c8a                	fld	fs9,160(sp)
    800043fc:	989a                	add	a7,a7,t1
    800043fe:	96fa                	add	a3,a3,t5
    80004400:	6135                	addi	sp,sp,352
    80004402:	bfffd06f          	j	80002000 <mm_naive>
    80004406:	6456                	ld	s0,336(sp)
    80004408:	7742                	ld	a4,48(sp)
    8000440a:	60f6                	ld	ra,344(sp)
    8000440c:	64b6                	ld	s1,328(sp)
    8000440e:	6916                	ld	s2,320(sp)
    80004410:	79f2                	ld	s3,312(sp)
    80004412:	7a52                	ld	s4,304(sp)
    80004414:	7ab2                	ld	s5,296(sp)
    80004416:	7b12                	ld	s6,288(sp)
    80004418:	6bf2                	ld	s7,280(sp)
    8000441a:	6c52                	ld	s8,272(sp)
    8000441c:	6cb2                	ld	s9,264(sp)
    8000441e:	6d12                	ld	s10,256(sp)
    80004420:	7dee                	ld	s11,248(sp)
    80004422:	342e                	fld	fs0,232(sp)
    80004424:	348e                	fld	fs1,224(sp)
    80004426:	296e                	fld	fs2,216(sp)
    80004428:	29ce                	fld	fs3,208(sp)
    8000442a:	2a2e                	fld	fs4,200(sp)
    8000442c:	2a8e                	fld	fs5,192(sp)
    8000442e:	3b6a                	fld	fs6,184(sp)
    80004430:	3bca                	fld	fs7,176(sp)
    80004432:	3c2a                	fld	fs8,168(sp)
    80004434:	3c8a                	fld	fs9,160(sp)
    80004436:	f2aa                	sd	a0,352(sp)
    80004438:	86fa                	mv	a3,t5
    8000443a:	857e                	mv	a0,t6
    8000443c:	6135                	addi	sp,sp,352
    8000443e:	d13fd06f          	j	80002150 <mm_cb>

0000000080004442 <barrier>:
    80004442:	0ff0000f          	fence
    80004446:	00022703          	lw	a4,0(tp) # 0 <threadsense.2>
    8000444a:	a5818693          	addi	a3,gp,-1448 # 80005218 <count.1>
    8000444e:	4605                	li	a2,1
    80004450:	00173713          	seqz	a4,a4
    80004454:	00e22023          	sw	a4,0(tp) # 0 <threadsense.2>
    80004458:	0f50000f          	fence	iorw,ow
    8000445c:	04c6a72f          	amoadd.w.aq	a4,a2,(a3)
    80004460:	357d                	addiw	a0,a0,-1
    80004462:	2701                	sext.w	a4,a4
    80004464:	00e50c63          	beq	a0,a4,8000447c <barrier+0x3a>
    80004468:	00022683          	lw	a3,0(tp) # 0 <threadsense.2>
    8000446c:	a5418713          	addi	a4,gp,-1452 # 80005214 <sense.0>
    80004470:	431c                	lw	a5,0(a4)
    80004472:	fed79fe3          	bne	a5,a3,80004470 <barrier+0x2e>
    80004476:	0ff0000f          	fence
    8000447a:	8082                	ret
    8000447c:	00022783          	lw	a5,0(tp) # 0 <threadsense.2>
    80004480:	a401ac23          	sw	zero,-1448(gp) # 80005218 <count.1>
    80004484:	a4f1aa23          	sw	a5,-1452(gp) # 80005214 <sense.0>
    80004488:	b7fd                	j	80004476 <barrier+0x34>

000000008000448a <thread_entry>:
    8000448a:	7159                	addi	sp,sp,-112
    8000448c:	77fd                	lui	a5,0xfffff
    8000448e:	f486                	sd	ra,104(sp)
    80004490:	f0a2                	sd	s0,96(sp)
    80004492:	eca6                	sd	s1,88(sp)
    80004494:	e8ca                	sd	s2,80(sp)
    80004496:	e4ce                	sd	s3,72(sp)
    80004498:	e0d2                	sd	s4,64(sp)
    8000449a:	f85a                	sd	s6,48(sp)
    8000449c:	f45e                	sd	s7,40(sp)
    8000449e:	e86a                	sd	s10,16(sp)
    800044a0:	fc56                	sd	s5,56(sp)
    800044a2:	f062                	sd	s8,32(sp)
    800044a4:	ec66                	sd	s9,24(sp)
    800044a6:	1880                	addi	s0,sp,112
    800044a8:	e0078713          	addi	a4,a5,-512 # ffffffffffffee00 <__global_pointer$+0xffffffff7fff9640>
    800044ac:	d4078093          	addi	ra,a5,-704
    800044b0:	913a                	add	sp,sp,a4
    800044b2:	01010913          	addi	s2,sp,16
    800044b6:	37ab72b7          	lui	t0,0x37ab7
    800044ba:	9106                	add	sp,sp,ra
    800044bc:	6f05                	lui	t5,0x1
    800044be:	01010993          	addi	s3,sp,16
    800044c2:	2c0f0313          	addi	t1,t5,704 # 12c0 <buflen.1+0x1240>
    800044c6:	9106                	add	sp,sp,ra
    800044c8:	00229393          	slli	t2,t0,0x2
    800044cc:	4e05                	li	t3,1
    800044ce:	8a2a                	mv	s4,a0
    800044d0:	8d2e                	mv	s10,a1
    800044d2:	0804                	addi	s1,sp,16
    800044d4:	0c090e93          	addi	t4,s2,192
    800044d8:	00690bb3          	add	s7,s2,t1
    800044dc:	eef38293          	addi	t0,t2,-273
    800044e0:	03ee1b13          	slli	s6,t3,0x3e
    800044e4:	f40e8a93          	addi	s5,t4,-192
    800044e8:	0012d693          	srli	a3,t0,0x1
    800044ec:	0056c533          	xor	a0,a3,t0
    800044f0:	03e51593          	slli	a1,a0,0x3e
    800044f4:	0165f633          	and	a2,a1,s6
    800044f8:	00d66c33          	or	s8,a2,a3
    800044fc:	001c5813          	srli	a6,s8,0x1
    80004500:	018848b3          	xor	a7,a6,s8
    80004504:	03e89c93          	slli	s9,a7,0x3e
    80004508:	016cffb3          	and	t6,s9,s6
    8000450c:	010fe733          	or	a4,t6,a6
    80004510:	00175793          	srli	a5,a4,0x1
    80004514:	00e7c0b3          	xor	ra,a5,a4
    80004518:	03e09293          	slli	t0,ra,0x3e
    8000451c:	0162ff33          	and	t5,t0,s6
    80004520:	00ff6333          	or	t1,t5,a5
    80004524:	00135393          	srli	t2,t1,0x1
    80004528:	0063ce33          	xor	t3,t2,t1
    8000452c:	03ee1693          	slli	a3,t3,0x3e
    80004530:	0166f533          	and	a0,a3,s6
    80004534:	00756833          	or	a6,a0,t2
    80004538:	00185613          	srli	a2,a6,0x1
    8000453c:	010645b3          	xor	a1,a2,a6
    80004540:	03e59893          	slli	a7,a1,0x3e
    80004544:	0168fcb3          	and	s9,a7,s6
    80004548:	00cce0b3          	or	ra,s9,a2
    8000454c:	0010df93          	srli	t6,ra,0x1
    80004550:	001fc7b3          	xor	a5,t6,ra
    80004554:	03e79293          	slli	t0,a5,0x3e
    80004558:	0162ff33          	and	t5,t0,s6
    8000455c:	01ff63b3          	or	t2,t5,t6
    80004560:	0013de13          	srli	t3,t2,0x1
    80004564:	007e46b3          	xor	a3,t3,t2
    80004568:	03e69513          	slli	a0,a3,0x3e
    8000456c:	01657633          	and	a2,a0,s6
    80004570:	01c665b3          	or	a1,a2,t3
    80004574:	0015d893          	srli	a7,a1,0x1
    80004578:	00b8ccb3          	xor	s9,a7,a1
    8000457c:	03ec9f93          	slli	t6,s9,0x3e
    80004580:	016ff7b3          	and	a5,t6,s6
    80004584:	0117e2b3          	or	t0,a5,a7
    80004588:	d22c70d3          	fcvt.d.l	ft1,s8
    8000458c:	d2277053          	fcvt.d.l	ft0,a4
    80004590:	d2237553          	fcvt.d.l	fa0,t1
    80004594:	d22875d3          	fcvt.d.l	fa1,a6
    80004598:	d220f653          	fcvt.d.l	fa2,ra
    8000459c:	d223f6d3          	fcvt.d.l	fa3,t2
    800045a0:	d225f753          	fcvt.d.l	fa4,a1
    800045a4:	d222f7d3          	fcvt.d.l	fa5,t0
    800045a8:	001ab027          	fsd	ft1,0(s5)
    800045ac:	000ab427          	fsd	ft0,8(s5)
    800045b0:	00aab827          	fsd	fa0,16(s5)
    800045b4:	00babc27          	fsd	fa1,24(s5)
    800045b8:	02cab027          	fsd	fa2,32(s5)
    800045bc:	02dab427          	fsd	fa3,40(s5)
    800045c0:	02eab827          	fsd	fa4,48(s5)
    800045c4:	02fabc27          	fsd	fa5,56(s5)
    800045c8:	040a8a93          	addi	s5,s5,64
    800045cc:	f1da9ee3          	bne	s5,t4,800044e8 <thread_entry+0x5e>
    800045d0:	0c0a8e93          	addi	t4,s5,192
    800045d4:	f17e98e3          	bne	t4,s7,800044e4 <thread_entry+0x5a>
    800045d8:	6a85                	lui	s5,0x1
    800045da:	388a8b13          	addi	s6,s5,904 # 1388 <buflen.1+0x1308>
    800045de:	4b85                	li	s7,1
    800045e0:	0c898e93          	addi	t4,s3,200
    800045e4:	01698f33          	add	t5,s3,s6
    800045e8:	03eb9313          	slli	t1,s7,0x3e
    800045ec:	0012dc13          	srli	s8,t0,0x1
    800045f0:	005c4733          	xor	a4,s8,t0
    800045f4:	03e71813          	slli	a6,a4,0x3e
    800045f8:	006870b3          	and	ra,a6,t1
    800045fc:	0180e2b3          	or	t0,ra,s8
    80004600:	d222f153          	fcvt.d.l	ft2,t0
    80004604:	f40e8393          	addi	t2,t4,-192
    80004608:	f22ebc27          	fsd	ft2,-200(t4)
    8000460c:	0012de13          	srli	t3,t0,0x1
    80004610:	005e46b3          	xor	a3,t3,t0
    80004614:	03e69513          	slli	a0,a3,0x3e
    80004618:	00657633          	and	a2,a0,t1
    8000461c:	01c665b3          	or	a1,a2,t3
    80004620:	0015dc93          	srli	s9,a1,0x1
    80004624:	00bcc8b3          	xor	a7,s9,a1
    80004628:	03e89f93          	slli	t6,a7,0x3e
    8000462c:	006ff7b3          	and	a5,t6,t1
    80004630:	0197eab3          	or	s5,a5,s9
    80004634:	001adb13          	srli	s6,s5,0x1
    80004638:	015b4bb3          	xor	s7,s6,s5
    8000463c:	03eb9c13          	slli	s8,s7,0x3e
    80004640:	006c7733          	and	a4,s8,t1
    80004644:	01676833          	or	a6,a4,s6
    80004648:	00185093          	srli	ra,a6,0x1
    8000464c:	0100c2b3          	xor	t0,ra,a6
    80004650:	03e29e13          	slli	t3,t0,0x3e
    80004654:	006e76b3          	and	a3,t3,t1
    80004658:	0016e533          	or	a0,a3,ra
    8000465c:	00155c93          	srli	s9,a0,0x1
    80004660:	00acc633          	xor	a2,s9,a0
    80004664:	03e61893          	slli	a7,a2,0x3e
    80004668:	0068ffb3          	and	t6,a7,t1
    8000466c:	019feb33          	or	s6,t6,s9
    80004670:	001b5793          	srli	a5,s6,0x1
    80004674:	0167cbb3          	xor	s7,a5,s6
    80004678:	03eb9c13          	slli	s8,s7,0x3e
    8000467c:	006c7733          	and	a4,s8,t1
    80004680:	00f760b3          	or	ra,a4,a5
    80004684:	0010d293          	srli	t0,ra,0x1
    80004688:	0012ce33          	xor	t3,t0,ra
    8000468c:	03ee1693          	slli	a3,t3,0x3e
    80004690:	0066fcb3          	and	s9,a3,t1
    80004694:	005ce633          	or	a2,s9,t0
    80004698:	00165893          	srli	a7,a2,0x1
    8000469c:	00c8cfb3          	xor	t6,a7,a2
    800046a0:	03ef9793          	slli	a5,t6,0x3e
    800046a4:	0067fbb3          	and	s7,a5,t1
    800046a8:	011be2b3          	or	t0,s7,a7
    800046ac:	d225f1d3          	fcvt.d.l	ft3,a1
    800046b0:	d22af253          	fcvt.d.l	ft4,s5
    800046b4:	d22872d3          	fcvt.d.l	ft5,a6
    800046b8:	d2257353          	fcvt.d.l	ft6,a0
    800046bc:	d22b73d3          	fcvt.d.l	ft7,s6
    800046c0:	d220f853          	fcvt.d.l	fa6,ra
    800046c4:	d22678d3          	fcvt.d.l	fa7,a2
    800046c8:	d222fe53          	fcvt.d.l	ft8,t0
    800046cc:	0033b027          	fsd	ft3,0(t2)
    800046d0:	0043b427          	fsd	ft4,8(t2)
    800046d4:	0053b827          	fsd	ft5,16(t2)
    800046d8:	0063bc27          	fsd	ft6,24(t2)
    800046dc:	0273b027          	fsd	ft7,32(t2)
    800046e0:	0303b427          	fsd	fa6,40(t2)
    800046e4:	0313b827          	fsd	fa7,48(t2)
    800046e8:	03c3bc27          	fsd	ft8,56(t2)
    800046ec:	04038393          	addi	t2,t2,64
    800046f0:	f07e9ee3          	bne	t4,t2,8000460c <thread_entry+0x182>
    800046f4:	0c8e8e93          	addi	t4,t4,200
    800046f8:	efee9ae3          	bne	t4,t5,800045ec <thread_entry+0x162>
    800046fc:	6385                	lui	t2,0x1
    800046fe:	2c038613          	addi	a2,t2,704 # 12c0 <buflen.1+0x1240>
    80004702:	4581                	li	a1,0
    80004704:	8526                	mv	a0,s1
    80004706:	6d0000ef          	jal	ra,80004dd6 <memset>
    8000470a:	4aa1                	li	s5,8
    8000470c:	4ce5                	li	s9,25
    8000470e:	b0202b73          	csrr	s6,minstret
    80004712:	b0002c73          	csrr	s8,mcycle
    80004716:	4865                	li	a6,25
    80004718:	e066                	sd	s9,0(sp)
    8000471a:	88a6                	mv	a7,s1
    8000471c:	87ce                	mv	a5,s3
    8000471e:	4761                	li	a4,24
    80004720:	86ca                	mv	a3,s2
    80004722:	4661                	li	a2,24
    80004724:	45e5                	li	a1,25
    80004726:	4561                	li	a0,24
    80004728:	f3cff0ef          	jal	ra,80003e64 <mm>
    8000472c:	b0202bf3          	csrr	s7,minstret
    80004730:	b0002373          	csrr	t1,mcycle
    80004734:	3afd                	addiw	s5,s5,-1
    80004736:	fc0a9ce3          	bnez	s5,8000470e <thread_entry+0x284>
    8000473a:	41830cb3          	sub	s9,t1,s8
    8000473e:	0ff0000f          	fence
    80004742:	47e1                	li	a5,24
    80004744:	48e1                	li	a7,24
    80004746:	4719                	li	a4,6
    80004748:	4865                	li	a6,25
    8000474a:	4695                	li	a3,5
    8000474c:	4611                	li	a2,4
    8000474e:	85d2                	mv	a1,s4
    80004750:	00001517          	auipc	a0,0x1
    80004754:	88850513          	addi	a0,a0,-1912 # 80004fd8 <main+0x36>
    80004758:	5ca000ef          	jal	ra,80004d22 <printf>
    8000475c:	416b863b          	subw	a2,s7,s6
    80004760:	85d2                	mv	a1,s4
    80004762:	00001517          	auipc	a0,0x1
    80004766:	8a650513          	addi	a0,a0,-1882 # 80005008 <main+0x66>
    8000476a:	5b8000ef          	jal	ra,80004d22 <printf>
    8000476e:	000c861b          	sext.w	a2,s9
    80004772:	85d2                	mv	a1,s4
    80004774:	00001517          	auipc	a0,0x1
    80004778:	8ac50513          	addi	a0,a0,-1876 # 80005020 <main+0x7e>
    8000477c:	5a6000ef          	jal	ra,80004d22 <printf>
    80004780:	6f1d                	lui	t5,0x7
    80004782:	080f0613          	addi	a2,t5,128 # 7080 <buflen.1+0x7000>
    80004786:	85d2                	mv	a1,s4
    80004788:	00001517          	auipc	a0,0x1
    8000478c:	8a850513          	addi	a0,a0,-1880 # 80005030 <main+0x8e>
    80004790:	592000ef          	jal	ra,80004d22 <printf>
    80004794:	01b775b7          	lui	a1,0x1b77
    80004798:	40058813          	addi	a6,a1,1024 # 1b77400 <buflen.1+0x1b77380>
    8000479c:	03985633          	divu	a2,a6,s9
    800047a0:	85d2                	mv	a1,s4
    800047a2:	00001517          	auipc	a0,0x1
    800047a6:	89e50513          	addi	a0,a0,-1890 # 80005040 <main+0x9e>
    800047aa:	4c65                	li	s8,25
    800047ac:	576000ef          	jal	ra,80004d22 <printf>
    800047b0:	6505                	lui	a0,0x1
    800047b2:	777d                	lui	a4,0xfffff
    800047b4:	4601                	li	a2,0
    800047b6:	00001797          	auipc	a5,0x1
    800047ba:	80a7bf87          	fld	ft11,-2038(a5) # 80004fc0 <main+0x1e>
    800047be:	00001797          	auipc	a5,0x1
    800047c2:	80a7bf07          	fld	ft10,-2038(a5) # 80004fc8 <main+0x26>
    800047c6:	2c050e13          	addi	t3,a0,704 # 12c0 <buflen.1+0x1240>
    800047ca:	d4070893          	addi	a7,a4,-704 # ffffffffffffed40 <__global_pointer$+0xffffffff7fff9580>
    800047ce:	00161093          	slli	ra,a2,0x1
    800047d2:	00c082b3          	add	t0,ra,a2
    800047d6:	00629693          	slli	a3,t0,0x6
    800047da:	00d90eb3          	add	t4,s2,a3
    800047de:	01c98fb3          	add	t6,s3,t3
    800047e2:	83a6                	mv	t2,s1
    800047e4:	4681                	li	a3,0
    800047e6:	f2000ed3          	fmv.d.x	ft9,zero
    800047ea:	011f87b3          	add	a5,t6,a7
    800047ee:	8b76                	mv	s6,t4
    800047f0:	000b3087          	fld	ft1,0(s6)
    800047f4:	2388                	fld	fa0,0(a5)
    800047f6:	008b3007          	fld	ft0,8(s6)
    800047fa:	27f4                	fld	fa3,200(a5)
    800047fc:	eaa0f743          	fmadd.d	fa4,ft1,fa0,ft9
    80004800:	010b3387          	fld	ft7,16(s6)
    80004804:	1907b307          	fld	ft6,400(a5)
    80004808:	018b3587          	fld	fa1,24(s6)
    8000480c:	2587b287          	fld	ft5,600(a5)
    80004810:	020b3607          	fld	fa2,32(s6)
    80004814:	3207b207          	fld	ft4,800(a5)
    80004818:	72d07843          	fmadd.d	fa6,ft0,fa3,fa4
    8000481c:	028b3887          	fld	fa7,40(s6)
    80004820:	3e87b187          	fld	ft3,1000(a5)
    80004824:	030b3e07          	fld	ft8,48(s6)
    80004828:	4b07b107          	fld	ft2,1200(a5)
    8000482c:	038b3787          	fld	fa5,56(s6)
    80004830:	5787be87          	fld	ft9,1400(a5)
    80004834:	8263f0c3          	fmadd.d	ft1,ft7,ft6,fa6
    80004838:	64078793          	addi	a5,a5,1600
    8000483c:	040b0b13          	addi	s6,s6,64
    80004840:	0a55f543          	fmadd.d	fa0,fa1,ft5,ft1
    80004844:	52467043          	fmadd.d	ft0,fa2,ft4,fa0
    80004848:	0238f6c3          	fmadd.d	fa3,fa7,ft3,ft0
    8000484c:	6a2e7743          	fmadd.d	fa4,ft8,ft2,fa3
    80004850:	73d7fec3          	fmadd.d	ft9,fa5,ft9,fa4
    80004854:	f8ff9ee3          	bne	t6,a5,800047f0 <thread_entry+0x366>
    80004858:	13fef3d3          	fmul.d	ft7,ft9,ft11
    8000485c:	0003b307          	fld	ft6,0(t2)
    80004860:	13e3f5d3          	fmul.d	fa1,ft7,ft10
    80004864:	0a7372d3          	fsub.d	ft5,ft6,ft7
    80004868:	22b5a653          	fabs.d	fa2,fa1
    8000486c:	2252a253          	fabs.d	ft4,ft5
    80004870:	a2461bd3          	flt.d	s7,fa2,ft4
    80004874:	020b9363          	bnez	s7,8000489a <thread_entry+0x410>
    80004878:	0685                	addi	a3,a3,1
    8000487a:	03a1                	addi	t2,t2,8
    8000487c:	0fa1                	addi	t6,t6,8
    8000487e:	f78694e3          	bne	a3,s8,800047e6 <thread_entry+0x35c>
    80004882:	0605                	addi	a2,a2,1
    80004884:	4361                	li	t1,24
    80004886:	0c848493          	addi	s1,s1,200
    8000488a:	f46612e3          	bne	a2,t1,800047ce <thread_entry+0x344>
    8000488e:	856a                	mv	a0,s10
    80004890:	bb3ff0ef          	jal	ra,80004442 <barrier>
    80004894:	4501                	li	a0,0
    80004896:	3d8000ef          	jal	ra,80004c6e <exit>
    8000489a:	e20387d3          	fmv.x.d	a5,ft7
    8000489e:	e2030753          	fmv.x.d	a4,ft6
    800048a2:	85d2                	mv	a1,s4
    800048a4:	00000517          	auipc	a0,0x0
    800048a8:	7b450513          	addi	a0,a0,1972 # 80005058 <main+0xb6>
    800048ac:	476000ef          	jal	ra,80004d22 <printf>
    800048b0:	4505                	li	a0,1
    800048b2:	3bc000ef          	jal	ra,80004c6e <exit>

00000000800048b6 <vprintfmt>:
    800048b6:	7149                	addi	sp,sp,-368
    800048b8:	f2a2                	sd	s0,352(sp)
    800048ba:	eea6                	sd	s1,344(sp)
    800048bc:	eaca                	sd	s2,336(sp)
    800048be:	e2d2                	sd	s4,320(sp)
    800048c0:	fe56                	sd	s5,312(sp)
    800048c2:	fa5a                	sd	s6,304(sp)
    800048c4:	f65e                	sd	s7,296(sp)
    800048c6:	f686                	sd	ra,360(sp)
    800048c8:	e6ce                	sd	s3,328(sp)
    800048ca:	f262                	sd	s8,288(sp)
    800048cc:	ee66                	sd	s9,280(sp)
    800048ce:	ea6a                	sd	s10,272(sp)
    800048d0:	e66e                	sd	s11,264(sp)
    800048d2:	892a                	mv	s2,a0
    800048d4:	84ae                	mv	s1,a1
    800048d6:	8432                	mv	s0,a2
    800048d8:	8ab6                	mv	s5,a3
    800048da:	02500a13          	li	s4,37
    800048de:	05500b93          	li	s7,85
    800048e2:	8fc18b13          	addi	s6,gp,-1796 # 800050bc <main+0x11a>
    800048e6:	a029                	j	800048f0 <vprintfmt+0x3a>
    800048e8:	cd1d                	beqz	a0,80004926 <vprintfmt+0x70>
    800048ea:	85a6                	mv	a1,s1
    800048ec:	0405                	addi	s0,s0,1
    800048ee:	9902                	jalr	s2
    800048f0:	00044503          	lbu	a0,0(s0)
    800048f4:	ff451ae3          	bne	a0,s4,800048e8 <vprintfmt+0x32>
    800048f8:	00144683          	lbu	a3,1(s0)
    800048fc:	00140993          	addi	s3,s0,1
    80004900:	874e                	mv	a4,s3
    80004902:	02000c93          	li	s9,32
    80004906:	5c7d                	li	s8,-1
    80004908:	5dfd                	li	s11,-1
    8000490a:	4601                	li	a2,0
    8000490c:	fdd6879b          	addiw	a5,a3,-35
    80004910:	0ff7f793          	zext.b	a5,a5
    80004914:	00170413          	addi	s0,a4,1
    80004918:	04fbe263          	bltu	s7,a5,8000495c <vprintfmt+0xa6>
    8000491c:	078a                	slli	a5,a5,0x2
    8000491e:	97da                	add	a5,a5,s6
    80004920:	439c                	lw	a5,0(a5)
    80004922:	97da                	add	a5,a5,s6
    80004924:	8782                	jr	a5
    80004926:	70b6                	ld	ra,360(sp)
    80004928:	7416                	ld	s0,352(sp)
    8000492a:	64f6                	ld	s1,344(sp)
    8000492c:	6956                	ld	s2,336(sp)
    8000492e:	69b6                	ld	s3,328(sp)
    80004930:	6a16                	ld	s4,320(sp)
    80004932:	7af2                	ld	s5,312(sp)
    80004934:	7b52                	ld	s6,304(sp)
    80004936:	7bb2                	ld	s7,296(sp)
    80004938:	7c12                	ld	s8,288(sp)
    8000493a:	6cf2                	ld	s9,280(sp)
    8000493c:	6d52                	ld	s10,272(sp)
    8000493e:	6db2                	ld	s11,264(sp)
    80004940:	6175                	addi	sp,sp,368
    80004942:	8082                	ret
    80004944:	8cb6                	mv	s9,a3
    80004946:	00174683          	lbu	a3,1(a4)
    8000494a:	8722                	mv	a4,s0
    8000494c:	00170413          	addi	s0,a4,1
    80004950:	fdd6879b          	addiw	a5,a3,-35
    80004954:	0ff7f793          	zext.b	a5,a5
    80004958:	fcfbf2e3          	bgeu	s7,a5,8000491c <vprintfmt+0x66>
    8000495c:	85a6                	mv	a1,s1
    8000495e:	02500513          	li	a0,37
    80004962:	9902                	jalr	s2
    80004964:	844e                	mv	s0,s3
    80004966:	b769                	j	800048f0 <vprintfmt+0x3a>
    80004968:	fd068c1b          	addiw	s8,a3,-48
    8000496c:	00174683          	lbu	a3,1(a4)
    80004970:	47a5                	li	a5,9
    80004972:	fd06871b          	addiw	a4,a3,-48
    80004976:	0006859b          	sext.w	a1,a3
    8000497a:	20e7e863          	bltu	a5,a4,80004b8a <vprintfmt+0x2d4>
    8000497e:	8722                	mv	a4,s0
    80004980:	4825                	li	a6,9
    80004982:	00174683          	lbu	a3,1(a4)
    80004986:	002c179b          	slliw	a5,s8,0x2
    8000498a:	018787bb          	addw	a5,a5,s8
    8000498e:	0017979b          	slliw	a5,a5,0x1
    80004992:	9fad                	addw	a5,a5,a1
    80004994:	fd06851b          	addiw	a0,a3,-48
    80004998:	0705                	addi	a4,a4,1
    8000499a:	fd078c1b          	addiw	s8,a5,-48
    8000499e:	0006859b          	sext.w	a1,a3
    800049a2:	fea870e3          	bgeu	a6,a0,80004982 <vprintfmt+0xcc>
    800049a6:	f60dd3e3          	bgez	s11,8000490c <vprintfmt+0x56>
    800049aa:	8de2                	mv	s11,s8
    800049ac:	5c7d                	li	s8,-1
    800049ae:	bfb9                	j	8000490c <vprintfmt+0x56>
    800049b0:	00174683          	lbu	a3,1(a4)
    800049b4:	8722                	mv	a4,s0
    800049b6:	bf99                	j	8000490c <vprintfmt+0x56>
    800049b8:	85a6                	mv	a1,s1
    800049ba:	02500513          	li	a0,37
    800049be:	9902                	jalr	s2
    800049c0:	bf05                	j	800048f0 <vprintfmt+0x3a>
    800049c2:	000aac03          	lw	s8,0(s5)
    800049c6:	00174683          	lbu	a3,1(a4)
    800049ca:	0aa1                	addi	s5,s5,8
    800049cc:	8722                	mv	a4,s0
    800049ce:	bfe1                	j	800049a6 <vprintfmt+0xf0>
    800049d0:	03000513          	li	a0,48
    800049d4:	85a6                	mv	a1,s1
    800049d6:	9902                	jalr	s2
    800049d8:	85a6                	mv	a1,s1
    800049da:	07800513          	li	a0,120
    800049de:	9902                	jalr	s2
    800049e0:	46c1                	li	a3,16
    800049e2:	008a8713          	addi	a4,s5,8
    800049e6:	000ab783          	ld	a5,0(s5)
    800049ea:	8aba                	mv	s5,a4
    800049ec:	02d7f5b3          	remu	a1,a5,a3
    800049f0:	000c899b          	sext.w	s3,s9
    800049f4:	0050                	addi	a2,sp,4
    800049f6:	4705                	li	a4,1
    800049f8:	c02e                	sw	a1,0(sp)
    800049fa:	16d7e663          	bltu	a5,a3,80004b66 <vprintfmt+0x2b0>
    800049fe:	02d7d7b3          	divu	a5,a5,a3
    80004a02:	0611                	addi	a2,a2,4
    80004a04:	8c3a                	mv	s8,a4
    80004a06:	2705                	addiw	a4,a4,1
    80004a08:	02d7f5b3          	remu	a1,a5,a3
    80004a0c:	feb62e23          	sw	a1,-4(a2)
    80004a10:	fed7f7e3          	bgeu	a5,a3,800049fe <vprintfmt+0x148>
    80004a14:	fffd8c9b          	addiw	s9,s11,-1
    80004a18:	fff70d1b          	addiw	s10,a4,-1
    80004a1c:	01b75863          	bge	a4,s11,80004a2c <vprintfmt+0x176>
    80004a20:	3cfd                	addiw	s9,s9,-1
    80004a22:	85a6                	mv	a1,s1
    80004a24:	854e                	mv	a0,s3
    80004a26:	9902                	jalr	s2
    80004a28:	ffac9ce3          	bne	s9,s10,80004a20 <vprintfmt+0x16a>
    80004a2c:	0c0a                	slli	s8,s8,0x2
    80004a2e:	018109b3          	add	s3,sp,s8
    80004a32:	ffc10c93          	addi	s9,sp,-4
    80004a36:	4c25                	li	s8,9
    80004a38:	0009a783          	lw	a5,0(s3)
    80004a3c:	05700513          	li	a0,87
    80004a40:	00fc6463          	bltu	s8,a5,80004a48 <vprintfmt+0x192>
    80004a44:	03000513          	li	a0,48
    80004a48:	19f1                	addi	s3,s3,-4
    80004a4a:	85a6                	mv	a1,s1
    80004a4c:	9d3d                	addw	a0,a0,a5
    80004a4e:	9902                	jalr	s2
    80004a50:	ff3c94e3          	bne	s9,s3,80004a38 <vprintfmt+0x182>
    80004a54:	bd71                	j	800048f0 <vprintfmt+0x3a>
    80004a56:	4785                	li	a5,1
    80004a58:	008a8c13          	addi	s8,s5,8
    80004a5c:	00c7c463          	blt	a5,a2,80004a64 <vprintfmt+0x1ae>
    80004a60:	10060563          	beqz	a2,80004b6a <vprintfmt+0x2b4>
    80004a64:	000ab983          	ld	s3,0(s5)
    80004a68:	1009c863          	bltz	s3,80004b78 <vprintfmt+0x2c2>
    80004a6c:	87ce                	mv	a5,s3
    80004a6e:	8ae2                	mv	s5,s8
    80004a70:	46a9                	li	a3,10
    80004a72:	bfad                	j	800049ec <vprintfmt+0x136>
    80004a74:	00174683          	lbu	a3,1(a4)
    80004a78:	2605                	addiw	a2,a2,1
    80004a7a:	8722                	mv	a4,s0
    80004a7c:	bd41                	j	8000490c <vprintfmt+0x56>
    80004a7e:	46c1                	li	a3,16
    80004a80:	4785                	li	a5,1
    80004a82:	008a8713          	addi	a4,s5,8
    80004a86:	f6c7c0e3          	blt	a5,a2,800049e6 <vprintfmt+0x130>
    80004a8a:	fe31                	bnez	a2,800049e6 <vprintfmt+0x130>
    80004a8c:	000ae783          	lwu	a5,0(s5)
    80004a90:	8aba                	mv	s5,a4
    80004a92:	bfa9                	j	800049ec <vprintfmt+0x136>
    80004a94:	000abd03          	ld	s10,0(s5)
    80004a98:	0aa1                	addi	s5,s5,8
    80004a9a:	040d0263          	beqz	s10,80004ade <vprintfmt+0x228>
    80004a9e:	09b05d63          	blez	s11,80004b38 <vprintfmt+0x282>
    80004aa2:	02d00793          	li	a5,45
    80004aa6:	04fc9e63          	bne	s9,a5,80004b02 <vprintfmt+0x24c>
    80004aaa:	000d4503          	lbu	a0,0(s10)
    80004aae:	c105                	beqz	a0,80004ace <vprintfmt+0x218>
    80004ab0:	59fd                	li	s3,-1
    80004ab2:	000c4563          	bltz	s8,80004abc <vprintfmt+0x206>
    80004ab6:	3c7d                	addiw	s8,s8,-1
    80004ab8:	013c0963          	beq	s8,s3,80004aca <vprintfmt+0x214>
    80004abc:	85a6                	mv	a1,s1
    80004abe:	0d05                	addi	s10,s10,1
    80004ac0:	9902                	jalr	s2
    80004ac2:	000d4503          	lbu	a0,0(s10)
    80004ac6:	3dfd                	addiw	s11,s11,-1
    80004ac8:	f56d                	bnez	a0,80004ab2 <vprintfmt+0x1fc>
    80004aca:	e3b053e3          	blez	s11,800048f0 <vprintfmt+0x3a>
    80004ace:	3dfd                	addiw	s11,s11,-1
    80004ad0:	85a6                	mv	a1,s1
    80004ad2:	02000513          	li	a0,32
    80004ad6:	9902                	jalr	s2
    80004ad8:	fe0d9be3          	bnez	s11,80004ace <vprintfmt+0x218>
    80004adc:	bd11                	j	800048f0 <vprintfmt+0x3a>
    80004ade:	00000d17          	auipc	s10,0x0
    80004ae2:	59ad0d13          	addi	s10,s10,1434 # 80005078 <main+0xd6>
    80004ae6:	02800513          	li	a0,40
    80004aea:	fdb053e3          	blez	s11,80004ab0 <vprintfmt+0x1fa>
    80004aee:	02d00793          	li	a5,45
    80004af2:	00000d17          	auipc	s10,0x0
    80004af6:	586d0d13          	addi	s10,s10,1414 # 80005078 <main+0xd6>
    80004afa:	02800513          	li	a0,40
    80004afe:	fafc89e3          	beq	s9,a5,80004ab0 <vprintfmt+0x1fa>
    80004b02:	000d861b          	sext.w	a2,s11
    80004b06:	87ea                	mv	a5,s10
    80004b08:	018d06b3          	add	a3,s10,s8
    80004b0c:	000c1663          	bnez	s8,80004b18 <vprintfmt+0x262>
    80004b10:	a829                	j	80004b2a <vprintfmt+0x274>
    80004b12:	0785                	addi	a5,a5,1
    80004b14:	00d78563          	beq	a5,a3,80004b1e <vprintfmt+0x268>
    80004b18:	0007c703          	lbu	a4,0(a5)
    80004b1c:	fb7d                	bnez	a4,80004b12 <vprintfmt+0x25c>
    80004b1e:	41a787b3          	sub	a5,a5,s10
    80004b22:	40f60dbb          	subw	s11,a2,a5
    80004b26:	01b05963          	blez	s11,80004b38 <vprintfmt+0x282>
    80004b2a:	2c81                	sext.w	s9,s9
    80004b2c:	3dfd                	addiw	s11,s11,-1
    80004b2e:	85a6                	mv	a1,s1
    80004b30:	8566                	mv	a0,s9
    80004b32:	9902                	jalr	s2
    80004b34:	fe0d9ce3          	bnez	s11,80004b2c <vprintfmt+0x276>
    80004b38:	000d4503          	lbu	a0,0(s10)
    80004b3c:	da050ae3          	beqz	a0,800048f0 <vprintfmt+0x3a>
    80004b40:	59fd                	li	s3,-1
    80004b42:	bf85                	j	80004ab2 <vprintfmt+0x1fc>
    80004b44:	fffdc793          	not	a5,s11
    80004b48:	97fd                	srai	a5,a5,0x3f
    80004b4a:	00fdf7b3          	and	a5,s11,a5
    80004b4e:	00174683          	lbu	a3,1(a4)
    80004b52:	00078d9b          	sext.w	s11,a5
    80004b56:	8722                	mv	a4,s0
    80004b58:	bb55                	j	8000490c <vprintfmt+0x56>
    80004b5a:	000aa503          	lw	a0,0(s5)
    80004b5e:	85a6                	mv	a1,s1
    80004b60:	0aa1                	addi	s5,s5,8
    80004b62:	9902                	jalr	s2
    80004b64:	b371                	j	800048f0 <vprintfmt+0x3a>
    80004b66:	4c01                	li	s8,0
    80004b68:	b575                	j	80004a14 <vprintfmt+0x15e>
    80004b6a:	000aa983          	lw	s3,0(s5)
    80004b6e:	bded                	j	80004a68 <vprintfmt+0x1b2>
    80004b70:	46a9                	li	a3,10
    80004b72:	b739                	j	80004a80 <vprintfmt+0x1ca>
    80004b74:	46a1                	li	a3,8
    80004b76:	b729                	j	80004a80 <vprintfmt+0x1ca>
    80004b78:	85a6                	mv	a1,s1
    80004b7a:	02d00513          	li	a0,45
    80004b7e:	9902                	jalr	s2
    80004b80:	8ae2                	mv	s5,s8
    80004b82:	413007b3          	neg	a5,s3
    80004b86:	46a9                	li	a3,10
    80004b88:	b595                	j	800049ec <vprintfmt+0x136>
    80004b8a:	8722                	mv	a4,s0
    80004b8c:	bd29                	j	800049a6 <vprintfmt+0xf0>

0000000080004b8e <sprintf_putch.0>:
    80004b8e:	619c                	ld	a5,0(a1)
    80004b90:	00a78023          	sb	a0,0(a5)
    80004b94:	619c                	ld	a5,0(a1)
    80004b96:	0785                	addi	a5,a5,1
    80004b98:	e19c                	sd	a5,0(a1)
    80004b9a:	8082                	ret

0000000080004b9c <putchar>:
    80004b9c:	08022803          	lw	a6,128(tp) # 80 <buflen.1>
    80004ba0:	04020793          	addi	a5,tp,64 # 40 <buf.2>
    80004ba4:	97c2                	add	a5,a5,a6
    80004ba6:	7159                	addi	sp,sp,-112
    80004ba8:	0018069b          	addiw	a3,a6,1
    80004bac:	08d22023          	sw	a3,128(tp) # 80 <buflen.1>
    80004bb0:	00a78023          	sb	a0,0(a5)
    80004bb4:	03f10713          	addi	a4,sp,63
    80004bb8:	47a9                	li	a5,10
    80004bba:	fc077713          	andi	a4,a4,-64
    80004bbe:	00f50963          	beq	a0,a5,80004bd0 <putchar+0x34>
    80004bc2:	04000793          	li	a5,64
    80004bc6:	00f68563          	beq	a3,a5,80004bd0 <putchar+0x34>
    80004bca:	4501                	li	a0,0
    80004bcc:	6165                	addi	sp,sp,112
    80004bce:	8082                	ret
    80004bd0:	04000793          	li	a5,64
    80004bd4:	e31c                	sd	a5,0(a4)
    80004bd6:	4785                	li	a5,1
    80004bd8:	e71c                	sd	a5,8(a4)
    80004bda:	04020613          	addi	a2,tp,64 # 40 <buf.2>
    80004bde:	eb10                	sd	a2,16(a4)
    80004be0:	ef14                	sd	a3,24(a4)
    80004be2:	0ff0000f          	fence
    80004be6:	ffffc697          	auipc	a3,0xffffc
    80004bea:	45a68693          	addi	a3,a3,1114 # 80001040 <fromhost>
    80004bee:	ffffc797          	auipc	a5,0xffffc
    80004bf2:	40e7b923          	sd	a4,1042(a5) # 80001000 <tohost>
    80004bf6:	629c                	ld	a5,0(a3)
    80004bf8:	dffd                	beqz	a5,80004bf6 <putchar+0x5a>
    80004bfa:	ffffc797          	auipc	a5,0xffffc
    80004bfe:	4407b323          	sd	zero,1094(a5) # 80001040 <fromhost>
    80004c02:	0ff0000f          	fence
    80004c06:	08022023          	sw	zero,128(tp) # 80 <buflen.1>
    80004c0a:	631c                	ld	a5,0(a4)
    80004c0c:	4501                	li	a0,0
    80004c0e:	6165                	addi	sp,sp,112
    80004c10:	8082                	ret

0000000080004c12 <setStats>:
    80004c12:	b0002773          	csrr	a4,mcycle
    80004c16:	a6018793          	addi	a5,gp,-1440 # 80005220 <counters>
    80004c1a:	c511                	beqz	a0,80004c26 <setStats+0x14>
    80004c1c:	e398                	sd	a4,0(a5)
    80004c1e:	b0202773          	csrr	a4,minstret
    80004c22:	e798                	sd	a4,8(a5)
    80004c24:	8082                	ret
    80004c26:	6394                	ld	a3,0(a5)
    80004c28:	00000617          	auipc	a2,0x0
    80004c2c:	45860613          	addi	a2,a2,1112 # 80005080 <main+0xde>
    80004c30:	eb90                	sd	a2,16(a5)
    80004c32:	8f15                	sub	a4,a4,a3
    80004c34:	e398                	sd	a4,0(a5)
    80004c36:	b0202773          	csrr	a4,minstret
    80004c3a:	6794                	ld	a3,8(a5)
    80004c3c:	00000617          	auipc	a2,0x0
    80004c40:	44c60613          	addi	a2,a2,1100 # 80005088 <main+0xe6>
    80004c44:	ef90                	sd	a2,24(a5)
    80004c46:	8f15                	sub	a4,a4,a3
    80004c48:	e798                	sd	a4,8(a5)
    80004c4a:	8082                	ret

0000000080004c4c <tohost_exit>:
    80004c4c:	00151793          	slli	a5,a0,0x1
    80004c50:	0017e793          	ori	a5,a5,1
    80004c54:	ffffc717          	auipc	a4,0xffffc
    80004c58:	3af73623          	sd	a5,940(a4) # 80001000 <tohost>
    80004c5c:	a001                	j	80004c5c <tohost_exit+0x10>

0000000080004c5e <handle_trap>:
    80004c5e:	6785                	lui	a5,0x1
    80004c60:	a7378793          	addi	a5,a5,-1421 # a73 <buflen.1+0x9f3>
    80004c64:	ffffc717          	auipc	a4,0xffffc
    80004c68:	38f73e23          	sd	a5,924(a4) # 80001000 <tohost>
    80004c6c:	a001                	j	80004c6c <handle_trap+0xe>

0000000080004c6e <exit>:
    80004c6e:	1141                	addi	sp,sp,-16
    80004c70:	e406                	sd	ra,8(sp)
    80004c72:	fdbff0ef          	jal	ra,80004c4c <tohost_exit>

0000000080004c76 <abort>:
    80004c76:	10d00793          	li	a5,269
    80004c7a:	ffffc717          	auipc	a4,0xffffc
    80004c7e:	38f73323          	sd	a5,902(a4) # 80001000 <tohost>
    80004c82:	a001                	j	80004c82 <abort+0xc>

0000000080004c84 <printstr>:
    80004c84:	00054783          	lbu	a5,0(a0)
    80004c88:	7159                	addi	sp,sp,-112
    80004c8a:	03f10693          	addi	a3,sp,63
    80004c8e:	fc06f693          	andi	a3,a3,-64
    80004c92:	c3b9                	beqz	a5,80004cd8 <printstr+0x54>
    80004c94:	87aa                	mv	a5,a0
    80004c96:	0017c703          	lbu	a4,1(a5)
    80004c9a:	0785                	addi	a5,a5,1
    80004c9c:	ff6d                	bnez	a4,80004c96 <printstr+0x12>
    80004c9e:	8f89                	sub	a5,a5,a0
    80004ca0:	04000713          	li	a4,64
    80004ca4:	e298                	sd	a4,0(a3)
    80004ca6:	4705                	li	a4,1
    80004ca8:	e698                	sd	a4,8(a3)
    80004caa:	ea88                	sd	a0,16(a3)
    80004cac:	ee9c                	sd	a5,24(a3)
    80004cae:	0ff0000f          	fence
    80004cb2:	ffffc717          	auipc	a4,0xffffc
    80004cb6:	38e70713          	addi	a4,a4,910 # 80001040 <fromhost>
    80004cba:	ffffc797          	auipc	a5,0xffffc
    80004cbe:	34d7b323          	sd	a3,838(a5) # 80001000 <tohost>
    80004cc2:	631c                	ld	a5,0(a4)
    80004cc4:	dffd                	beqz	a5,80004cc2 <printstr+0x3e>
    80004cc6:	ffffc797          	auipc	a5,0xffffc
    80004cca:	3607bd23          	sd	zero,890(a5) # 80001040 <fromhost>
    80004cce:	0ff0000f          	fence
    80004cd2:	629c                	ld	a5,0(a3)
    80004cd4:	6165                	addi	sp,sp,112
    80004cd6:	8082                	ret
    80004cd8:	4781                	li	a5,0
    80004cda:	b7d9                	j	80004ca0 <printstr+0x1c>
    80004cdc:	e101                	bnez	a0,80004cdc <printstr+0x58>
    80004cde:	8082                	ret

0000000080004ce0 <printhex>:
    80004ce0:	7179                	addi	sp,sp,-48
    80004ce2:	87aa                	mv	a5,a0
    80004ce4:	f406                	sd	ra,40(sp)
    80004ce6:	0028                	addi	a0,sp,8
    80004ce8:	01710713          	addi	a4,sp,23
    80004cec:	4825                	li	a6,9
    80004cee:	a011                	j	80004cf2 <printhex+0x12>
    80004cf0:	8736                	mv	a4,a3
    80004cf2:	00f7f613          	andi	a2,a5,15
    80004cf6:	86b2                	mv	a3,a2
    80004cf8:	05700593          	li	a1,87
    80004cfc:	00c86463          	bltu	a6,a2,80004d04 <printhex+0x24>
    80004d00:	03000593          	li	a1,48
    80004d04:	9ead                	addw	a3,a3,a1
    80004d06:	00d70023          	sb	a3,0(a4)
    80004d0a:	8391                	srli	a5,a5,0x4
    80004d0c:	fff70693          	addi	a3,a4,-1
    80004d10:	fee510e3          	bne	a0,a4,80004cf0 <printhex+0x10>
    80004d14:	00010c23          	sb	zero,24(sp)
    80004d18:	f6dff0ef          	jal	ra,80004c84 <printstr>
    80004d1c:	70a2                	ld	ra,40(sp)
    80004d1e:	6145                	addi	sp,sp,48
    80004d20:	8082                	ret

0000000080004d22 <printf>:
    80004d22:	711d                	addi	sp,sp,-96
    80004d24:	02810313          	addi	t1,sp,40
    80004d28:	8e2a                	mv	t3,a0
    80004d2a:	f42e                	sd	a1,40(sp)
    80004d2c:	f832                	sd	a2,48(sp)
    80004d2e:	fc36                	sd	a3,56(sp)
    80004d30:	00000517          	auipc	a0,0x0
    80004d34:	e6c50513          	addi	a0,a0,-404 # 80004b9c <putchar>
    80004d38:	869a                	mv	a3,t1
    80004d3a:	8672                	mv	a2,t3
    80004d3c:	4581                	li	a1,0
    80004d3e:	ec06                	sd	ra,24(sp)
    80004d40:	e0ba                	sd	a4,64(sp)
    80004d42:	e4be                	sd	a5,72(sp)
    80004d44:	e8c2                	sd	a6,80(sp)
    80004d46:	ecc6                	sd	a7,88(sp)
    80004d48:	e41a                	sd	t1,8(sp)
    80004d4a:	b6dff0ef          	jal	ra,800048b6 <vprintfmt>
    80004d4e:	60e2                	ld	ra,24(sp)
    80004d50:	4501                	li	a0,0
    80004d52:	6125                	addi	sp,sp,96
    80004d54:	8082                	ret

0000000080004d56 <sprintf>:
    80004d56:	711d                	addi	sp,sp,-96
    80004d58:	03010313          	addi	t1,sp,48
    80004d5c:	f022                	sd	s0,32(sp)
    80004d5e:	e42a                	sd	a0,8(sp)
    80004d60:	f832                	sd	a2,48(sp)
    80004d62:	fc36                	sd	a3,56(sp)
    80004d64:	842a                	mv	s0,a0
    80004d66:	862e                	mv	a2,a1
    80004d68:	00000517          	auipc	a0,0x0
    80004d6c:	e2650513          	addi	a0,a0,-474 # 80004b8e <sprintf_putch.0>
    80004d70:	002c                	addi	a1,sp,8
    80004d72:	869a                	mv	a3,t1
    80004d74:	f406                	sd	ra,40(sp)
    80004d76:	e4be                	sd	a5,72(sp)
    80004d78:	e0ba                	sd	a4,64(sp)
    80004d7a:	e8c2                	sd	a6,80(sp)
    80004d7c:	ecc6                	sd	a7,88(sp)
    80004d7e:	ec1a                	sd	t1,24(sp)
    80004d80:	b37ff0ef          	jal	ra,800048b6 <vprintfmt>
    80004d84:	67a2                	ld	a5,8(sp)
    80004d86:	00078023          	sb	zero,0(a5)
    80004d8a:	6522                	ld	a0,8(sp)
    80004d8c:	70a2                	ld	ra,40(sp)
    80004d8e:	9d01                	subw	a0,a0,s0
    80004d90:	7402                	ld	s0,32(sp)
    80004d92:	6125                	addi	sp,sp,96
    80004d94:	8082                	ret

0000000080004d96 <memcpy>:
    80004d96:	00b567b3          	or	a5,a0,a1
    80004d9a:	8fd1                	or	a5,a5,a2
    80004d9c:	8b9d                	andi	a5,a5,7
    80004d9e:	00c506b3          	add	a3,a0,a2
    80004da2:	cf91                	beqz	a5,80004dbe <memcpy+0x28>
    80004da4:	962e                	add	a2,a2,a1
    80004da6:	87aa                	mv	a5,a0
    80004da8:	02d57663          	bgeu	a0,a3,80004dd4 <memcpy+0x3e>
    80004dac:	0005c703          	lbu	a4,0(a1)
    80004db0:	0585                	addi	a1,a1,1
    80004db2:	0785                	addi	a5,a5,1
    80004db4:	fee78fa3          	sb	a4,-1(a5)
    80004db8:	feb61ae3          	bne	a2,a1,80004dac <memcpy+0x16>
    80004dbc:	8082                	ret
    80004dbe:	fed57fe3          	bgeu	a0,a3,80004dbc <memcpy+0x26>
    80004dc2:	87aa                	mv	a5,a0
    80004dc4:	6198                	ld	a4,0(a1)
    80004dc6:	07a1                	addi	a5,a5,8
    80004dc8:	05a1                	addi	a1,a1,8
    80004dca:	fee7bc23          	sd	a4,-8(a5)
    80004dce:	fed7ebe3          	bltu	a5,a3,80004dc4 <memcpy+0x2e>
    80004dd2:	8082                	ret
    80004dd4:	8082                	ret

0000000080004dd6 <memset>:
    80004dd6:	00c567b3          	or	a5,a0,a2
    80004dda:	8b9d                	andi	a5,a5,7
    80004ddc:	962a                	add	a2,a2,a0
    80004dde:	0ff5f713          	zext.b	a4,a1
    80004de2:	cb91                	beqz	a5,80004df6 <memset+0x20>
    80004de4:	87aa                	mv	a5,a0
    80004de6:	02c57763          	bgeu	a0,a2,80004e14 <memset+0x3e>
    80004dea:	0785                	addi	a5,a5,1
    80004dec:	fee78fa3          	sb	a4,-1(a5)
    80004df0:	fec79de3          	bne	a5,a2,80004dea <memset+0x14>
    80004df4:	8082                	ret
    80004df6:	00000797          	auipc	a5,0x0
    80004dfa:	1da7b783          	ld	a5,474(a5) # 80004fd0 <main+0x2e>
    80004dfe:	02f70733          	mul	a4,a4,a5
    80004e02:	fec579e3          	bgeu	a0,a2,80004df4 <memset+0x1e>
    80004e06:	87aa                	mv	a5,a0
    80004e08:	07a1                	addi	a5,a5,8
    80004e0a:	fee7bc23          	sd	a4,-8(a5)
    80004e0e:	fec7ede3          	bltu	a5,a2,80004e08 <memset+0x32>
    80004e12:	8082                	ret
    80004e14:	8082                	ret

0000000080004e16 <_init>:
    80004e16:	7171                	addi	sp,sp,-176
    80004e18:	a8018793          	addi	a5,gp,-1408 # 80005240 <_end>
    80004e1c:	e152                	sd	s4,128(sp)
    80004e1e:	a8018a13          	addi	s4,gp,-1408 # 80005240 <_end>
    80004e22:	e54e                	sd	s3,136(sp)
    80004e24:	40fa09b3          	sub	s3,s4,a5
    80004e28:	ed26                	sd	s1,152(sp)
    80004e2a:	e94a                	sd	s2,144(sp)
    80004e2c:	84aa                	mv	s1,a0
    80004e2e:	892e                	mv	s2,a1
    80004e30:	8512                	mv	a0,tp
    80004e32:	85be                	mv	a1,a5
    80004e34:	864e                	mv	a2,s3
    80004e36:	f506                	sd	ra,168(sp)
    80004e38:	f122                	sd	s0,160(sp)
    80004e3a:	fcd6                	sd	s5,120(sp)
    80004e3c:	8a92                	mv	s5,tp
    80004e3e:	f59ff0ef          	jal	ra,80004d96 <memcpy>
    80004e42:	b0418613          	addi	a2,gp,-1276 # 800052c4 <_tbss_end>
    80004e46:	41460633          	sub	a2,a2,s4
    80004e4a:	4581                	li	a1,0
    80004e4c:	013a8533          	add	a0,s5,s3
    80004e50:	f87ff0ef          	jal	ra,80004dd6 <memset>
    80004e54:	85ca                	mv	a1,s2
    80004e56:	8526                	mv	a0,s1
    80004e58:	e32ff0ef          	jal	ra,8000448a <thread_entry>
    80004e5c:	4581                	li	a1,0
    80004e5e:	4501                	li	a0,0
    80004e60:	142000ef          	jal	ra,80004fa2 <main>
    80004e64:	a6018913          	addi	s2,gp,-1440 # 80005220 <counters>
    80004e68:	00093683          	ld	a3,0(s2)
    80004e6c:	03f10413          	addi	s0,sp,63
    80004e70:	fc047413          	andi	s0,s0,-64
    80004e74:	84aa                	mv	s1,a0
    80004e76:	ea85                	bnez	a3,80004ea6 <_init+0x90>
    80004e78:	00893683          	ld	a3,8(s2)
    80004e7c:	e681                	bnez	a3,80004e84 <_init+0x6e>
    80004e7e:	8526                	mv	a0,s1
    80004e80:	dcdff0ef          	jal	ra,80004c4c <tohost_exit>
    80004e84:	89a2                	mv	s3,s0
    80004e86:	01893603          	ld	a2,24(s2)
    80004e8a:	854e                	mv	a0,s3
    80004e8c:	00000597          	auipc	a1,0x0
    80004e90:	22458593          	addi	a1,a1,548 # 800050b0 <main+0x10e>
    80004e94:	ec3ff0ef          	jal	ra,80004d56 <sprintf>
    80004e98:	99aa                	add	s3,s3,a0
    80004e9a:	ff3402e3          	beq	s0,s3,80004e7e <_init+0x68>
    80004e9e:	8522                	mv	a0,s0
    80004ea0:	de5ff0ef          	jal	ra,80004c84 <printstr>
    80004ea4:	bfe9                	j	80004e7e <_init+0x68>
    80004ea6:	01093603          	ld	a2,16(s2)
    80004eaa:	00000597          	auipc	a1,0x0
    80004eae:	20658593          	addi	a1,a1,518 # 800050b0 <main+0x10e>
    80004eb2:	8522                	mv	a0,s0
    80004eb4:	ea3ff0ef          	jal	ra,80004d56 <sprintf>
    80004eb8:	00893683          	ld	a3,8(s2)
    80004ebc:	00a409b3          	add	s3,s0,a0
    80004ec0:	dee9                	beqz	a3,80004e9a <_init+0x84>
    80004ec2:	b7d1                	j	80004e86 <_init+0x70>

0000000080004ec4 <strlen>:
    80004ec4:	00054783          	lbu	a5,0(a0)
    80004ec8:	cb89                	beqz	a5,80004eda <strlen+0x16>
    80004eca:	87aa                	mv	a5,a0
    80004ecc:	0017c703          	lbu	a4,1(a5)
    80004ed0:	0785                	addi	a5,a5,1
    80004ed2:	ff6d                	bnez	a4,80004ecc <strlen+0x8>
    80004ed4:	40a78533          	sub	a0,a5,a0
    80004ed8:	8082                	ret
    80004eda:	4501                	li	a0,0
    80004edc:	8082                	ret

0000000080004ede <strnlen>:
    80004ede:	00b506b3          	add	a3,a0,a1
    80004ee2:	87aa                	mv	a5,a0
    80004ee4:	e589                	bnez	a1,80004eee <strnlen+0x10>
    80004ee6:	a829                	j	80004f00 <strnlen+0x22>
    80004ee8:	0785                	addi	a5,a5,1
    80004eea:	00f68863          	beq	a3,a5,80004efa <strnlen+0x1c>
    80004eee:	0007c703          	lbu	a4,0(a5)
    80004ef2:	fb7d                	bnez	a4,80004ee8 <strnlen+0xa>
    80004ef4:	40a78533          	sub	a0,a5,a0
    80004ef8:	8082                	ret
    80004efa:	40a68533          	sub	a0,a3,a0
    80004efe:	8082                	ret
    80004f00:	4501                	li	a0,0
    80004f02:	8082                	ret

0000000080004f04 <strcmp>:
    80004f04:	00054783          	lbu	a5,0(a0)
    80004f08:	0585                	addi	a1,a1,1
    80004f0a:	0505                	addi	a0,a0,1
    80004f0c:	fff5c703          	lbu	a4,-1(a1)
    80004f10:	c799                	beqz	a5,80004f1e <strcmp+0x1a>
    80004f12:	fee789e3          	beq	a5,a4,80004f04 <strcmp>
    80004f16:	0007851b          	sext.w	a0,a5
    80004f1a:	9d19                	subw	a0,a0,a4
    80004f1c:	8082                	ret
    80004f1e:	4501                	li	a0,0
    80004f20:	bfed                	j	80004f1a <strcmp+0x16>

0000000080004f22 <strcpy>:
    80004f22:	87aa                	mv	a5,a0
    80004f24:	0005c703          	lbu	a4,0(a1)
    80004f28:	0785                	addi	a5,a5,1
    80004f2a:	0585                	addi	a1,a1,1
    80004f2c:	fee78fa3          	sb	a4,-1(a5)
    80004f30:	fb75                	bnez	a4,80004f24 <strcpy+0x2>
    80004f32:	8082                	ret

0000000080004f34 <atol>:
    80004f34:	00054703          	lbu	a4,0(a0)
    80004f38:	02000693          	li	a3,32
    80004f3c:	87aa                	mv	a5,a0
    80004f3e:	00d71763          	bne	a4,a3,80004f4c <atol+0x18>
    80004f42:	0017c703          	lbu	a4,1(a5)
    80004f46:	0785                	addi	a5,a5,1
    80004f48:	fed70de3          	beq	a4,a3,80004f42 <atol+0xe>
    80004f4c:	02d00693          	li	a3,45
    80004f50:	04d70263          	beq	a4,a3,80004f94 <atol+0x60>
    80004f54:	02b00693          	li	a3,43
    80004f58:	02d70763          	beq	a4,a3,80004f86 <atol+0x52>
    80004f5c:	0007c683          	lbu	a3,0(a5)
    80004f60:	4581                	li	a1,0
    80004f62:	c69d                	beqz	a3,80004f90 <atol+0x5c>
    80004f64:	4501                	li	a0,0
    80004f66:	0785                	addi	a5,a5,1
    80004f68:	00251713          	slli	a4,a0,0x2
    80004f6c:	fd06861b          	addiw	a2,a3,-48
    80004f70:	0007c683          	lbu	a3,0(a5)
    80004f74:	972a                	add	a4,a4,a0
    80004f76:	0706                	slli	a4,a4,0x1
    80004f78:	00e60533          	add	a0,a2,a4
    80004f7c:	f6ed                	bnez	a3,80004f66 <atol+0x32>
    80004f7e:	c991                	beqz	a1,80004f92 <atol+0x5e>
    80004f80:	40a00533          	neg	a0,a0
    80004f84:	8082                	ret
    80004f86:	0017c683          	lbu	a3,1(a5)
    80004f8a:	4581                	li	a1,0
    80004f8c:	0785                	addi	a5,a5,1
    80004f8e:	faf9                	bnez	a3,80004f64 <atol+0x30>
    80004f90:	4501                	li	a0,0
    80004f92:	8082                	ret
    80004f94:	0017c683          	lbu	a3,1(a5)
    80004f98:	4585                	li	a1,1
    80004f9a:	0785                	addi	a5,a5,1
    80004f9c:	f6e1                	bnez	a3,80004f64 <atol+0x30>
    80004f9e:	4501                	li	a0,0
    80004fa0:	bfcd                	j	80004f92 <atol+0x5e>

Disassembly of section .text.startup:

0000000080004fa2 <main>:
    80004fa2:	1141                	addi	sp,sp,-16
    80004fa4:	00000517          	auipc	a0,0x0
    80004fa8:	0f450513          	addi	a0,a0,244 # 80005098 <main+0xf6>
    80004fac:	e406                	sd	ra,8(sp)
    80004fae:	cd7ff0ef          	jal	ra,80004c84 <printstr>
    80004fb2:	60a2                	ld	ra,8(sp)
    80004fb4:	557d                	li	a0,-1
    80004fb6:	0141                	addi	sp,sp,16
    80004fb8:	8082                	ret
